Archive member included to satisfy reference by file (symbol)

/usr/lib/gcc/arm-none-eabi/4.9.3/libgcc.a(_udivsi3.o)
                              /home/woods/Documents/Bachelorthesis/ModeLevelTaskModel_RM/build/Demo/Drivers/print_473.o (__aeabi_uidiv)
/usr/lib/gcc/arm-none-eabi/4.9.3/libgcc.a(_dvmd_tls.o)
                              /usr/lib/gcc/arm-none-eabi/4.9.3/libgcc.a(_udivsi3.o) (__aeabi_idiv0)
/usr/lib/gcc/arm-none-eabi/4.9.3/libgcc.a(_arm_addsubdf3.o)
                              /home/woods/Documents/Bachelorthesis/ModeLevelTaskModel_RM/build/Demo/main.o (__aeabi_i2d)
/usr/lib/gcc/arm-none-eabi/4.9.3/libgcc.a(_arm_muldivdf3.o)
                              /home/woods/Documents/Bachelorthesis/ModeLevelTaskModel_RM/build/Demo/main.o (__aeabi_dmul)
/usr/lib/gcc/arm-none-eabi/4.9.3/libgcc.a(_arm_fixunsdfsi.o)
                              /home/woods/Documents/Bachelorthesis/ModeLevelTaskModel_RM/build/Demo/main.o (__aeabi_d2uiz)
/usr/lib/arm-none-eabi/lib/libc.a(lib_a-memcpy.o)
                              /home/woods/Documents/Bachelorthesis/ModeLevelTaskModel_RM/build/FreeRTOS/Source/queue.o (memcpy)
/usr/lib/arm-none-eabi/lib/libc.a(lib_a-memset.o)
                              /home/woods/Documents/Bachelorthesis/ModeLevelTaskModel_RM/build/FreeRTOS/Source/tasks.o (memset)
/usr/lib/arm-none-eabi/lib/libc.a(lib_a-strncpy.o)
                              /home/woods/Documents/Bachelorthesis/ModeLevelTaskModel_RM/build/FreeRTOS/Source/tasks.o (strncpy)

Allocating common symbols
Common symbol       size              file

s_bWereEnabled      0x1               /home/woods/Documents/Bachelorthesis/ModeLevelTaskModel_RM/build/FreeRTOS/Source/portable/GCC/RaspberryPi/portisr.o

Memory Configuration

Name             Origin             Length             Attributes
RESERVED         0x0000000000000000 0x0000000000008000 r
INIT_RAM         0x0000000000008000 0x0000000000008000 xrw
RAM              0x0000000000010000 0x0000000010000000 xrw
*default*        0x0000000000000000 0xffffffffffffffff

Linker script and memory map

LOAD /home/woods/Documents/Bachelorthesis/ModeLevelTaskModel_RM/build/FreeRTOS/Source/portable/GCC/RaspberryPi/port.o
LOAD /home/woods/Documents/Bachelorthesis/ModeLevelTaskModel_RM/build/FreeRTOS/Source/portable/GCC/RaspberryPi/portisr.o
LOAD /home/woods/Documents/Bachelorthesis/ModeLevelTaskModel_RM/build/FreeRTOS/Source/croutine.o
LOAD /home/woods/Documents/Bachelorthesis/ModeLevelTaskModel_RM/build/FreeRTOS/Source/list.o
LOAD /home/woods/Documents/Bachelorthesis/ModeLevelTaskModel_RM/build/FreeRTOS/Source/queue.o
LOAD /home/woods/Documents/Bachelorthesis/ModeLevelTaskModel_RM/build/FreeRTOS/Source/tasks.o
LOAD /home/woods/Documents/Bachelorthesis/ModeLevelTaskModel_RM/build/FreeRTOS/Source/binaryHeap.o
LOAD /home/woods/Documents/Bachelorthesis/ModeLevelTaskModel_RM/build/FreeRTOS/Source/pairingHeap.o
LOAD /home/woods/Documents/Bachelorthesis/ModeLevelTaskModel_RM/build/FreeRTOS/Source/dll.o
LOAD /home/woods/Documents/Bachelorthesis/ModeLevelTaskModel_RM/build/Demo/Drivers/irq.o
LOAD /home/woods/Documents/Bachelorthesis/ModeLevelTaskModel_RM/build/Demo/Drivers/gpio.o
LOAD /home/woods/Documents/Bachelorthesis/ModeLevelTaskModel_RM/build/Demo/Drivers/uart.o
LOAD /home/woods/Documents/Bachelorthesis/ModeLevelTaskModel_RM/build/Demo/Drivers/print_473.o
LOAD /home/woods/Documents/Bachelorthesis/ModeLevelTaskModel_RM/build//FreeRTOS/Source/portable/MemMang/heap_4.o
LOAD /home/woods/Documents/Bachelorthesis/ModeLevelTaskModel_RM/build/Demo/startup.o
LOAD /home/woods/Documents/Bachelorthesis/ModeLevelTaskModel_RM/build/Demo/main.o

.init           0x0000000000008000       0xa4
 *(.init)
 .init          0x0000000000008000       0xa4 /home/woods/Documents/Bachelorthesis/ModeLevelTaskModel_RM/build/Demo/startup.o
                0x0000000000008000                _start

.module_entries
                0x00000000000080a4        0x0
                0x00000000000080a4                __module_entries_start = .
 *(.module_entries)
 *(.module_entries.*)
                0x00000000000080a4                __module_entries_end = .
                0x0000000000000000                __module_entries_size = SIZEOF (.module_entries)

.text           0x0000000000010000     0x7620
 *(.text)
 .text          0x0000000000010000      0x368 /home/woods/Documents/Bachelorthesis/ModeLevelTaskModel_RM/build/FreeRTOS/Source/portable/GCC/RaspberryPi/port.o
                0x0000000000010000                xGetClkCount
                0x0000000000010030                pxPortInitialiseStack
                0x0000000000010270                xPortStartScheduler
                0x000000000001028c                vPortEndScheduler
                0x00000000000102a0                vTickISR
 .text          0x0000000000010368      0x2fc /home/woods/Documents/Bachelorthesis/ModeLevelTaskModel_RM/build/FreeRTOS/Source/portable/GCC/RaspberryPi/portisr.o
                0x0000000000010368                vPortISRStartFirstTask
                0x00000000000103fc                vPortYieldProcessor
                0x00000000000104ac                vFreeRTOS_ISR
                0x000000000001055c                vPortEnterCritical
                0x00000000000105e4                vPortExitCritical
 .text          0x0000000000010664      0x754 /home/woods/Documents/Bachelorthesis/ModeLevelTaskModel_RM/build/FreeRTOS/Source/croutine.o
                0x0000000000010664                xCoRoutineCreate
                0x00000000000107cc                vCoRoutineAddToDelayedList
                0x0000000000010b60                vCoRoutineSchedule
                0x0000000000010d2c                xCoRoutineRemoveFromEventList
 .text          0x0000000000010db8      0x288 /home/woods/Documents/Bachelorthesis/ModeLevelTaskModel_RM/build/FreeRTOS/Source/list.o
                0x0000000000010db8                vListInitialise
                0x0000000000010e1c                vListInitialiseItem
                0x0000000000010e44                vListInsertEnd
                0x0000000000010ed8                vListInsert
                0x0000000000010fac                vListRemove
 .text          0x0000000000011040      0xbbc /home/woods/Documents/Bachelorthesis/ModeLevelTaskModel_RM/build/FreeRTOS/Source/queue.o
                0x0000000000011040                xQueueGenericReset
                0x0000000000011154                xQueueGenericCreate
                0x000000000001121c                xQueueGenericSend
                0x00000000000113c8                xQueueGenericSendFromISR
                0x00000000000114a4                xQueueGenericReceive
                0x00000000000116b0                xQueueReceiveFromISR
                0x0000000000011790                uxQueueMessagesWaiting
                0x00000000000117c4                uxQueueMessagesWaitingFromISR
                0x00000000000117f4                vQueueDelete
                0x0000000000011b28                xQueueIsQueueEmptyFromISR
                0x0000000000011bb4                xQueueIsQueueFullFromISR
 .text          0x0000000000011bfc     0x26d8 /home/woods/Documents/Bachelorthesis/ModeLevelTaskModel_RM/build/FreeRTOS/Source/tasks.o
                0x0000000000011bfc                prvUpdateTaskMode
                0x0000000000011cb4                prvAddTaskToReadyQueue
                0x0000000000011d3c                prvCheckDelayedTasks
                0x0000000000011e18                sendData
                0x0000000000011e88                makePeriodic
                0x0000000000011f98                xTaskGenericCreate
                0x0000000000012268                vTaskDelete
                0x0000000000012378                vTaskDelayUntil
                0x0000000000012484                vTaskPeriodicDelay
                0x00000000000126b0                vTaskDelay
                0x0000000000012730                uxTaskPeriodGet
                0x000000000001279c                uxTaskCurrentDeadlineGet
                0x0000000000012814                uxTaskCurrentModeGet
                0x000000000001286c                uxTaskModeBreaksGet
                0x00000000000128d8                uxTaskDeadlineGet
                0x0000000000012944                uxTaskWCETGet
                0x00000000000129b0                uxTaskPriorityGet
                0x0000000000012a08                vTaskPrioritySet
                0x0000000000012b54                vTaskSuspend
                0x0000000000012c54                xTaskIsTaskSuspended
                0x0000000000012cd0                vTaskResume
                0x0000000000012d68                xTaskResumeFromISR
                0x0000000000012e28                vFinishEvaluation
                0x0000000000012f58                vAssignPriorities
                0x0000000000013274                vTaskStartScheduler
                0x00000000000133ac                vTaskEndScheduler
                0x00000000000133e0                vTaskSuspendAll
                0x000000000001340c                xTaskResumeAll
                0x0000000000013564                xTaskUnsuspendScheduler
                0x000000000001367c                xTaskGetTickCount
                0x00000000000136b0                xTaskGetTickCountFromISR
                0x00000000000136e8                uxTaskGetNumberOfTasks
                0x000000000001370c                xTaskGetIdleTaskHandle
                0x0000000000013730                vTaskIncrementTick
                0x0000000000013834                vTaskSwitchContext
                0x0000000000013918                vTaskPlaceOnEventList
                0x00000000000139b0                xTaskRemoveFromEventList
                0x0000000000013a6c                vTaskSetTimeOutState
                0x0000000000013ab0                xTaskCheckForTimeOut
                0x0000000000013ba4                vTaskMissedYield
                0x0000000000013bc8                vClearRemaining
 .text          0x00000000000142d4      0x368 /home/woods/Documents/Bachelorthesis/ModeLevelTaskModel_RM/build/FreeRTOS/Source/binaryHeap.o
                0x00000000000142d4                buildmaxheap
                0x0000000000014340                maxheapify
                0x00000000000144a8                insert
                0x0000000000014580                extractMax
 .text          0x000000000001463c      0x2c0 /home/woods/Documents/Bachelorthesis/ModeLevelTaskModel_RM/build/FreeRTOS/Source/pairingHeap.o
                0x000000000001463c                merge
                0x000000000001476c                twoPassMerge
                0x0000000000014820                pheapInsert
                0x0000000000014890                pheapExtractMax
 .text          0x00000000000148fc      0x11c /home/woods/Documents/Bachelorthesis/ModeLevelTaskModel_RM/build/FreeRTOS/Source/dll.o
                0x00000000000148fc                vDllInitialise
                0x000000000001496c                vDllInsert
 .text          0x0000000000014a18      0x3d8 /home/woods/Documents/Bachelorthesis/ModeLevelTaskModel_RM/build/Demo/Drivers/irq.o
                0x0000000000014ac4                irqHandler
                0x0000000000014bb4                irqUnblock
                0x0000000000014bcc                irqBlock
                0x0000000000014be4                irqRegister
                0x0000000000014c44                irqEnable
                0x0000000000014d14                irqDisable
 .text          0x0000000000014df0      0x5b8 /home/woods/Documents/Bachelorthesis/ModeLevelTaskModel_RM/build/Demo/Drivers/gpio.o
                0x0000000000014df0                SetGpioFunction
                0x0000000000014ec8                SetGpioDirection
                0x0000000000014ef8                SetGpio
                0x0000000000014fac                ReadGpio
                0x0000000000014ffc                EnableGpioDetect
                0x00000000000151a4                DisableGpioDetect
                0x0000000000015354                ClearGpioInterrupt
 .text          0x00000000000153a8      0x470 /home/woods/Documents/Bachelorthesis/ModeLevelTaskModel_RM/build/Demo/Drivers/uart.o
                0x00000000000153a8                PUT32
                0x00000000000153d4                GET32
                0x00000000000153fc                uart_puts
                0x0000000000015440                uart_putc
                0x000000000001548c                uart_getc
                0x00000000000154d0                uart_init
                0x0000000000015610                vUartISR
                0x0000000000015678                setupUARTInterrupt
 .text          0x0000000000015818      0x744 /home/woods/Documents/Bachelorthesis/ModeLevelTaskModel_RM/build/Demo/Drivers/print_473.o
                0x0000000000015e88                printf_473
                0x0000000000015ec8                sprintf_473
                0x0000000000015f10                snprintf_473
 .text          0x0000000000015f5c      0x4a4 /home/woods/Documents/Bachelorthesis/ModeLevelTaskModel_RM/build//FreeRTOS/Source/portable/MemMang/heap_4.o
                0x0000000000015f5c                pvPortMalloc
                0x0000000000016128                vPortFree
                0x00000000000161a0                xPortGetFreeHeapSize
                0x00000000000161c4                vPortInitialiseBlocks
 .text          0x0000000000016400       0x18 /home/woods/Documents/Bachelorthesis/ModeLevelTaskModel_RM/build/Demo/startup.o
 .text          0x0000000000016418      0x7e4 /home/woods/Documents/Bachelorthesis/ModeLevelTaskModel_RM/build/Demo/main.o
                0x0000000000016418                task
                0x00000000000164a4                createSet
                0x0000000000016be0                main
 .text          0x0000000000016bfc      0x114 /usr/lib/gcc/arm-none-eabi/4.9.3/libgcc.a(_udivsi3.o)
                0x0000000000016bfc                __udivsi3
                0x0000000000016bfc                __aeabi_uidiv
                0x0000000000016cf0                __aeabi_uidivmod
 .text          0x0000000000016d10        0x4 /usr/lib/gcc/arm-none-eabi/4.9.3/libgcc.a(_dvmd_tls.o)
                0x0000000000016d10                __aeabi_ldiv0
                0x0000000000016d10                __aeabi_idiv0
 .text          0x0000000000016d14      0x41c /usr/lib/gcc/arm-none-eabi/4.9.3/libgcc.a(_arm_addsubdf3.o)
                0x0000000000016d14                __aeabi_drsub
                0x0000000000016d1c                __aeabi_dsub
                0x0000000000016d1c                __subdf3
                0x0000000000016d20                __adddf3
                0x0000000000016d20                __aeabi_dadd
                0x0000000000017030                __aeabi_ui2d
                0x0000000000017030                __floatunsidf
                0x0000000000017054                __aeabi_i2d
                0x0000000000017054                __floatsidf
                0x000000000001707c                __extendsfdf2
                0x000000000001707c                __aeabi_f2d
                0x00000000000170bc                __aeabi_ul2d
                0x00000000000170bc                __floatundidf
                0x00000000000170d0                __floatdidf
                0x00000000000170d0                __aeabi_l2d
 .text          0x0000000000017130      0x49c /usr/lib/gcc/arm-none-eabi/4.9.3/libgcc.a(_arm_muldivdf3.o)
                0x0000000000017130                __aeabi_dmul
                0x0000000000017130                __muldf3
                0x00000000000173c0                __aeabi_ddiv
                0x00000000000173c0                __divdf3
 .text          0x00000000000175cc       0x54 /usr/lib/gcc/arm-none-eabi/4.9.3/libgcc.a(_arm_fixunsdfsi.o)
                0x00000000000175cc                __aeabi_d2uiz
                0x00000000000175cc                __fixunsdfsi
 .text          0x0000000000017620        0x0 /usr/lib/arm-none-eabi/lib/libc.a(lib_a-memcpy.o)
 .text          0x0000000000017620        0x0 /usr/lib/arm-none-eabi/lib/libc.a(lib_a-memset.o)
 .text          0x0000000000017620        0x0 /usr/lib/arm-none-eabi/lib/libc.a(lib_a-strncpy.o)

.rodata         0x0000000000017620       0x9b
 .rodata        0x0000000000017620        0x8 /home/woods/Documents/Bachelorthesis/ModeLevelTaskModel_RM/build/FreeRTOS/Source/portable/GCC/RaspberryPi/port.o
 .rodata        0x0000000000017628       0x29 /home/woods/Documents/Bachelorthesis/ModeLevelTaskModel_RM/build/FreeRTOS/Source/tasks.o
 *fill*         0x0000000000017651        0x3 
 .rodata        0x0000000000017654        0x4 /home/woods/Documents/Bachelorthesis/ModeLevelTaskModel_RM/build/Demo/Drivers/irq.o
 .rodata        0x0000000000017658        0x4 /home/woods/Documents/Bachelorthesis/ModeLevelTaskModel_RM/build/Demo/Drivers/gpio.o
                0x0000000000017658                pRegs
 .rodata        0x000000000001765c        0x7 /home/woods/Documents/Bachelorthesis/ModeLevelTaskModel_RM/build/Demo/Drivers/print_473.o
 *fill*         0x0000000000017663        0x1 
 .rodata        0x0000000000017664        0x8 /home/woods/Documents/Bachelorthesis/ModeLevelTaskModel_RM/build//FreeRTOS/Source/portable/MemMang/heap_4.o
 .rodata        0x000000000001766c       0x4f /home/woods/Documents/Bachelorthesis/ModeLevelTaskModel_RM/build/Demo/main.o

.glue_7         0x00000000000176bc        0x0
 .glue_7        0x00000000000176bc        0x0 linker stubs

.glue_7t        0x00000000000176bc        0x0
 .glue_7t       0x00000000000176bc        0x0 linker stubs

.vfp11_veneer   0x00000000000176bc        0x0
 .vfp11_veneer  0x00000000000176bc        0x0 linker stubs

.v4_bx          0x00000000000176bc        0x0
 .v4_bx         0x00000000000176bc        0x0 linker stubs

.iplt           0x00000000000176bc        0x0
 .iplt          0x00000000000176bc        0x0 /home/woods/Documents/Bachelorthesis/ModeLevelTaskModel_RM/build/FreeRTOS/Source/portable/GCC/RaspberryPi/port.o

.text.memcpy    0x00000000000176bc       0xf0
 .text.memcpy   0x00000000000176bc       0xf0 /usr/lib/arm-none-eabi/lib/libc.a(lib_a-memcpy.o)
                0x00000000000176bc                memcpy

.text.memset    0x00000000000177ac       0xf4
 .text.memset   0x00000000000177ac       0xf4 /usr/lib/arm-none-eabi/lib/libc.a(lib_a-memset.o)
                0x00000000000177ac                memset

.text.strncpy   0x00000000000178a0       0xe4
 .text.strncpy  0x00000000000178a0       0xe4 /usr/lib/arm-none-eabi/lib/libc.a(lib_a-strncpy.o)
                0x00000000000178a0                strncpy

.rel.dyn        0x0000000000017984        0x0
 .rel.iplt      0x0000000000017984        0x0 /home/woods/Documents/Bachelorthesis/ModeLevelTaskModel_RM/build/FreeRTOS/Source/portable/GCC/RaspberryPi/port.o

.data           0x0000000000017984    0x14534
 *(.data)
 .data          0x0000000000017984        0x0 /home/woods/Documents/Bachelorthesis/ModeLevelTaskModel_RM/build/FreeRTOS/Source/portable/GCC/RaspberryPi/port.o
 .data          0x0000000000017984        0x4 /home/woods/Documents/Bachelorthesis/ModeLevelTaskModel_RM/build/FreeRTOS/Source/portable/GCC/RaspberryPi/portisr.o
                0x0000000000017984                ulCriticalNesting
 .data          0x0000000000017988        0x0 /home/woods/Documents/Bachelorthesis/ModeLevelTaskModel_RM/build/FreeRTOS/Source/croutine.o
 .data          0x0000000000017988        0x0 /home/woods/Documents/Bachelorthesis/ModeLevelTaskModel_RM/build/FreeRTOS/Source/list.o
 .data          0x0000000000017988        0x0 /home/woods/Documents/Bachelorthesis/ModeLevelTaskModel_RM/build/FreeRTOS/Source/queue.o
 .data          0x0000000000017988        0x8 /home/woods/Documents/Bachelorthesis/ModeLevelTaskModel_RM/build/FreeRTOS/Source/tasks.o
 .data          0x0000000000017990        0x0 /home/woods/Documents/Bachelorthesis/ModeLevelTaskModel_RM/build/FreeRTOS/Source/binaryHeap.o
 .data          0x0000000000017990        0x0 /home/woods/Documents/Bachelorthesis/ModeLevelTaskModel_RM/build/FreeRTOS/Source/pairingHeap.o
 .data          0x0000000000017990        0x0 /home/woods/Documents/Bachelorthesis/ModeLevelTaskModel_RM/build/FreeRTOS/Source/dll.o
 .data          0x0000000000017990        0x0 /home/woods/Documents/Bachelorthesis/ModeLevelTaskModel_RM/build/Demo/Drivers/irq.o
 .data          0x0000000000017990        0x0 /home/woods/Documents/Bachelorthesis/ModeLevelTaskModel_RM/build/Demo/Drivers/gpio.o
 .data          0x0000000000017990        0x0 /home/woods/Documents/Bachelorthesis/ModeLevelTaskModel_RM/build/Demo/Drivers/uart.o
 .data          0x0000000000017990        0x0 /home/woods/Documents/Bachelorthesis/ModeLevelTaskModel_RM/build/Demo/Drivers/print_473.o
 .data          0x0000000000017990        0x4 /home/woods/Documents/Bachelorthesis/ModeLevelTaskModel_RM/build//FreeRTOS/Source/portable/MemMang/heap_4.o
 .data          0x0000000000017994        0x0 /home/woods/Documents/Bachelorthesis/ModeLevelTaskModel_RM/build/Demo/startup.o
 .data          0x0000000000017994    0x14524 /home/woods/Documents/Bachelorthesis/ModeLevelTaskModel_RM/build/Demo/main.o
                0x0000000000017994                w_s0_t_0
                0x00000000000179bc                w_s0_t_1
                0x00000000000179e4                w_s0_t_2
                0x00000000000179e8                w_s0_t_3
                0x00000000000179ec                w_s0_t_4
                0x00000000000179f0                w_s0_t_5
                0x0000000000017a18                w_s0_t_6
                0x0000000000017a1c                w_s0_t_7
                0x0000000000017a44                w_s0_t_8
                0x0000000000017a6c                w_s0_t_9
                0x0000000000017a70                w_s1_t_0
                0x0000000000017a98                w_s1_t_1
                0x0000000000017a9c                w_s1_t_2
                0x0000000000017ac4                w_s1_t_3
                0x0000000000017ac8                w_s1_t_4
                0x0000000000017acc                w_s1_t_5
                0x0000000000017ad0                w_s1_t_6
                0x0000000000017af8                w_s1_t_7
                0x0000000000017afc                w_s1_t_8
                0x0000000000017b24                w_s1_t_9
                0x0000000000017b4c                w_s2_t_0
                0x0000000000017b74                w_s2_t_1
                0x0000000000017b78                w_s2_t_2
                0x0000000000017b7c                w_s2_t_3
                0x0000000000017ba4                w_s2_t_4
                0x0000000000017ba8                w_s2_t_5
                0x0000000000017bd0                w_s2_t_6
                0x0000000000017bf8                w_s2_t_7
                0x0000000000017bfc                w_s2_t_8
                0x0000000000017c00                w_s2_t_9
                0x0000000000017c28                w_s3_t_0
                0x0000000000017c2c                w_s3_t_1
                0x0000000000017c54                w_s3_t_2
                0x0000000000017c7c                w_s3_t_3
                0x0000000000017c80                w_s3_t_4
                0x0000000000017ca8                w_s3_t_5
                0x0000000000017cac                w_s3_t_6
                0x0000000000017cd4                w_s3_t_7
                0x0000000000017cd8                w_s3_t_8
                0x0000000000017cdc                w_s3_t_9
                0x0000000000017d04                w_s4_t_0
                0x0000000000017d2c                w_s4_t_1
                0x0000000000017d30                w_s4_t_2
                0x0000000000017d34                w_s4_t_3
                0x0000000000017d38                w_s4_t_4
                0x0000000000017d60                w_s4_t_5
                0x0000000000017d88                w_s4_t_6
                0x0000000000017db0                w_s4_t_7
                0x0000000000017dd8                w_s4_t_8
                0x0000000000017ddc                w_s4_t_9
                0x0000000000017de0                w_s5_t_0
                0x0000000000017e08                w_s5_t_1
                0x0000000000017e0c                w_s5_t_2
                0x0000000000017e10                w_s5_t_3
                0x0000000000017e38                w_s5_t_4
                0x0000000000017e60                w_s5_t_5
                0x0000000000017e88                w_s5_t_6
                0x0000000000017eb0                w_s5_t_7
                0x0000000000017eb4                w_s5_t_8
                0x0000000000017eb8                w_s5_t_9
                0x0000000000017ebc                w_s6_t_0
                0x0000000000017ec0                w_s6_t_1
                0x0000000000017ec4                w_s6_t_2
                0x0000000000017ec8                w_s6_t_3
                0x0000000000017ef0                w_s6_t_4
                0x0000000000017f18                w_s6_t_5
                0x0000000000017f1c                w_s6_t_6
                0x0000000000017f44                w_s6_t_7
                0x0000000000017f6c                w_s6_t_8
                0x0000000000017f94                w_s6_t_9
                0x0000000000017f98                w_s7_t_0
                0x0000000000017fc0                w_s7_t_1
                0x0000000000017fc4                w_s7_t_2
                0x0000000000017fec                w_s7_t_3
                0x0000000000017ff0                w_s7_t_4
                0x0000000000017ff4                w_s7_t_5
                0x000000000001801c                w_s7_t_6
                0x0000000000018020                w_s7_t_7
                0x0000000000018024                w_s7_t_8
                0x000000000001804c                w_s7_t_9
                0x0000000000018074                w_s8_t_0
                0x000000000001809c                w_s8_t_1
                0x00000000000180a0                w_s8_t_2
                0x00000000000180a4                w_s8_t_3
                0x00000000000180cc                w_s8_t_4
                0x00000000000180f4                w_s8_t_5
                0x00000000000180f8                w_s8_t_6
                0x00000000000180fc                w_s8_t_7
                0x0000000000018124                w_s8_t_8
                0x0000000000018128                w_s8_t_9
                0x0000000000018150                w_s9_t_0
                0x0000000000018178                w_s9_t_1
                0x000000000001817c                w_s9_t_2
                0x00000000000181a4                w_s9_t_3
                0x00000000000181cc                w_s9_t_4
                0x00000000000181d0                w_s9_t_5
                0x00000000000181d4                w_s9_t_6
                0x00000000000181d8                w_s9_t_7
                0x0000000000018200                w_s9_t_8
                0x0000000000018204                w_s9_t_9
                0x000000000001822c                w_s10_t_0
                0x0000000000018254                w_s10_t_1
                0x000000000001827c                w_s10_t_2
                0x00000000000182a4                w_s10_t_3
                0x00000000000182a8                w_s10_t_4
                0x00000000000182ac                w_s10_t_5
                0x00000000000182d4                w_s10_t_6
                0x00000000000182d8                w_s10_t_7
                0x00000000000182dc                w_s10_t_8
                0x00000000000182e0                w_s10_t_9
                0x0000000000018308                w_s11_t_0
                0x000000000001830c                w_s11_t_1
                0x0000000000018334                w_s11_t_2
                0x0000000000018338                w_s11_t_3
                0x000000000001833c                w_s11_t_4
                0x0000000000018340                w_s11_t_5
                0x0000000000018368                w_s11_t_6
                0x0000000000018390                w_s11_t_7
                0x0000000000018394                w_s11_t_8
                0x00000000000183bc                w_s11_t_9
                0x00000000000183e4                w_s12_t_0
                0x00000000000183e8                w_s12_t_1
                0x00000000000183ec                w_s12_t_2
                0x0000000000018414                w_s12_t_3
                0x000000000001843c                w_s12_t_4
                0x0000000000018464                w_s12_t_5
                0x000000000001848c                w_s12_t_6
                0x0000000000018490                w_s12_t_7
                0x00000000000184b8                w_s12_t_8
                0x00000000000184bc                w_s12_t_9
                0x00000000000184c0                w_s13_t_0
                0x00000000000184e8                w_s13_t_1
                0x00000000000184ec                w_s13_t_2
                0x00000000000184f0                w_s13_t_3
                0x0000000000018518                w_s13_t_4
                0x0000000000018540                w_s13_t_5
                0x0000000000018568                w_s13_t_6
                0x000000000001856c                w_s13_t_7
                0x0000000000018594                w_s13_t_8
                0x0000000000018598                w_s13_t_9
                0x000000000001859c                w_s14_t_0
                0x00000000000185a0                w_s14_t_1
                0x00000000000185a4                w_s14_t_2
                0x00000000000185cc                w_s14_t_3
                0x00000000000185f4                w_s14_t_4
                0x00000000000185f8                w_s14_t_5
                0x00000000000185fc                w_s14_t_6
                0x0000000000018624                w_s14_t_7
                0x000000000001864c                w_s14_t_8
                0x0000000000018674                w_s14_t_9
                0x0000000000018678                w_s15_t_0
                0x000000000001867c                w_s15_t_1
                0x0000000000018680                w_s15_t_2
                0x00000000000186a8                w_s15_t_3
                0x00000000000186d0                w_s15_t_4
                0x00000000000186d4                w_s15_t_5
                0x00000000000186d8                w_s15_t_6
                0x0000000000018700                w_s15_t_7
                0x0000000000018704                w_s15_t_8
                0x000000000001872c                w_s15_t_9
                0x0000000000018754                w_s16_t_0
                0x0000000000018758                w_s16_t_1
                0x000000000001875c                w_s16_t_2
                0x0000000000018784                w_s16_t_3
                0x00000000000187ac                w_s16_t_4
                0x00000000000187d4                w_s16_t_5
                0x00000000000187d8                w_s16_t_6
                0x00000000000187dc                w_s16_t_7
                0x0000000000018804                w_s16_t_8
                0x000000000001882c                w_s16_t_9
                0x0000000000018830                w_s17_t_0
                0x0000000000018834                w_s17_t_1
                0x000000000001885c                w_s17_t_2
                0x0000000000018884                w_s17_t_3
                0x0000000000018888                w_s17_t_4
                0x00000000000188b0                w_s17_t_5
                0x00000000000188d8                w_s17_t_6
                0x0000000000018900                w_s17_t_7
                0x0000000000018904                w_s17_t_8
                0x0000000000018908                w_s17_t_9
                0x000000000001890c                w_s18_t_0
                0x0000000000018910                w_s18_t_1
                0x0000000000018938                w_s18_t_2
                0x000000000001893c                w_s18_t_3
                0x0000000000018964                w_s18_t_4
                0x0000000000018968                w_s18_t_5
                0x0000000000018990                w_s18_t_6
                0x00000000000189b8                w_s18_t_7
                0x00000000000189bc                w_s18_t_8
                0x00000000000189c0                w_s18_t_9
                0x00000000000189e8                w_s19_t_0
                0x0000000000018a10                w_s19_t_1
                0x0000000000018a38                w_s19_t_2
                0x0000000000018a60                w_s19_t_3
                0x0000000000018a64                w_s19_t_4
                0x0000000000018a8c                w_s19_t_5
                0x0000000000018a90                w_s19_t_6
                0x0000000000018a94                w_s19_t_7
                0x0000000000018abc                w_s19_t_8
                0x0000000000018ac0                w_s19_t_9
                0x0000000000018ac4                w_s20_t_0
                0x0000000000018ac8                w_s20_t_1
                0x0000000000018acc                w_s20_t_2
                0x0000000000018af4                w_s20_t_3
                0x0000000000018af8                w_s20_t_4
                0x0000000000018b20                w_s20_t_5
                0x0000000000018b48                w_s20_t_6
                0x0000000000018b70                w_s20_t_7
                0x0000000000018b74                w_s20_t_8
                0x0000000000018b78                w_s20_t_9
                0x0000000000018ba0                w_s21_t_0
                0x0000000000018bc8                w_s21_t_1
                0x0000000000018bf0                w_s21_t_2
                0x0000000000018bf4                w_s21_t_3
                0x0000000000018bf8                w_s21_t_4
                0x0000000000018bfc                w_s21_t_5
                0x0000000000018c24                w_s21_t_6
                0x0000000000018c28                w_s21_t_7
                0x0000000000018c50                w_s21_t_8
                0x0000000000018c78                w_s21_t_9
                0x0000000000018c7c                w_s22_t_0
                0x0000000000018c80                w_s22_t_1
                0x0000000000018c84                w_s22_t_2
                0x0000000000018cac                w_s22_t_3
                0x0000000000018cb0                w_s22_t_4
                0x0000000000018cb4                w_s22_t_5
                0x0000000000018cdc                w_s22_t_6
                0x0000000000018d04                w_s22_t_7
                0x0000000000018d08                w_s22_t_8
                0x0000000000018d30                w_s22_t_9
                0x0000000000018d58                w_s23_t_0
                0x0000000000018d5c                w_s23_t_1
                0x0000000000018d84                w_s23_t_2
                0x0000000000018d88                w_s23_t_3
                0x0000000000018db0                w_s23_t_4
                0x0000000000018dd8                w_s23_t_5
                0x0000000000018ddc                w_s23_t_6
                0x0000000000018de0                w_s23_t_7
                0x0000000000018e08                w_s23_t_8
                0x0000000000018e30                w_s23_t_9
                0x0000000000018e34                w_s24_t_0
                0x0000000000018e38                w_s24_t_1
                0x0000000000018e60                w_s24_t_2
                0x0000000000018e88                w_s24_t_3
                0x0000000000018e8c                w_s24_t_4
                0x0000000000018eb4                w_s24_t_5
                0x0000000000018eb8                w_s24_t_6
                0x0000000000018ee0                w_s24_t_7
                0x0000000000018ee4                w_s24_t_8
                0x0000000000018ee8                w_s24_t_9
                0x0000000000018f10                w_s25_t_0
                0x0000000000018f14                w_s25_t_1
                0x0000000000018f3c                w_s25_t_2
                0x0000000000018f64                w_s25_t_3
                0x0000000000018f68                w_s25_t_4
                0x0000000000018f6c                w_s25_t_5
                0x0000000000018f70                w_s25_t_6
                0x0000000000018f98                w_s25_t_7
                0x0000000000018f9c                w_s25_t_8
                0x0000000000018fc4                w_s25_t_9
                0x0000000000018fec                w_s26_t_0
                0x0000000000018ff0                w_s26_t_1
                0x0000000000018ff4                w_s26_t_2
                0x000000000001901c                w_s26_t_3
                0x0000000000019020                w_s26_t_4
                0x0000000000019048                w_s26_t_5
                0x0000000000019070                w_s26_t_6
                0x0000000000019074                w_s26_t_7
                0x0000000000019078                w_s26_t_8
                0x00000000000190a0                w_s26_t_9
                0x00000000000190c8                w_s27_t_0
                0x00000000000190f0                w_s27_t_1
                0x00000000000190f4                w_s27_t_2
                0x000000000001911c                w_s27_t_3
                0x0000000000019144                w_s27_t_4
                0x0000000000019148                w_s27_t_5
                0x000000000001914c                w_s27_t_6
                0x0000000000019150                w_s27_t_7
                0x0000000000019178                w_s27_t_8
                0x00000000000191a0                w_s27_t_9
                0x00000000000191a4                w_s28_t_0
                0x00000000000191cc                w_s28_t_1
                0x00000000000191d0                w_s28_t_2
                0x00000000000191f8                w_s28_t_3
                0x00000000000191fc                w_s28_t_4
                0x0000000000019224                w_s28_t_5
                0x0000000000019228                w_s28_t_6
                0x000000000001922c                w_s28_t_7
                0x0000000000019230                w_s28_t_8
                0x0000000000019258                w_s28_t_9
                0x0000000000019280                w_s29_t_0
                0x00000000000192a8                w_s29_t_1
                0x00000000000192ac                w_s29_t_2
                0x00000000000192d4                w_s29_t_3
                0x00000000000192fc                w_s29_t_4
                0x0000000000019300                w_s29_t_5
                0x0000000000019328                w_s29_t_6
                0x000000000001932c                w_s29_t_7
                0x0000000000019354                w_s29_t_8
                0x0000000000019358                w_s29_t_9
                0x000000000001935c                w_s30_t_0
                0x0000000000019360                w_s30_t_1
                0x0000000000019388                w_s30_t_2
                0x00000000000193b0                w_s30_t_3
                0x00000000000193d8                w_s30_t_4
                0x00000000000193dc                w_s30_t_5
                0x0000000000019404                w_s30_t_6
                0x0000000000019408                w_s30_t_7
                0x000000000001940c                w_s30_t_8
                0x0000000000019410                w_s30_t_9
                0x0000000000019438                w_s31_t_0
                0x0000000000019460                w_s31_t_1
                0x0000000000019464                w_s31_t_2
                0x000000000001948c                w_s31_t_3
                0x00000000000194b4                w_s31_t_4
                0x00000000000194b8                w_s31_t_5
                0x00000000000194bc                w_s31_t_6
                0x00000000000194e4                w_s31_t_7
                0x00000000000194e8                w_s31_t_8
                0x00000000000194ec                w_s31_t_9
                0x0000000000019514                w_s32_t_0
                0x000000000001953c                w_s32_t_1
                0x0000000000019564                w_s32_t_2
                0x0000000000019568                w_s32_t_3
                0x0000000000019590                w_s32_t_4
                0x0000000000019594                w_s32_t_5
                0x0000000000019598                w_s32_t_6
                0x00000000000195c0                w_s32_t_7
                0x00000000000195c4                w_s32_t_8
                0x00000000000195c8                w_s32_t_9
                0x00000000000195f0                w_s33_t_0
                0x0000000000019618                w_s33_t_1
                0x000000000001961c                w_s33_t_2
                0x0000000000019620                w_s33_t_3
                0x0000000000019624                w_s33_t_4
                0x000000000001964c                w_s33_t_5
                0x0000000000019674                w_s33_t_6
                0x0000000000019678                w_s33_t_7
                0x000000000001967c                w_s33_t_8
                0x00000000000196a4                w_s33_t_9
                0x00000000000196cc                w_s34_t_0
                0x00000000000196d0                w_s34_t_1
                0x00000000000196f8                w_s34_t_2
                0x00000000000196fc                w_s34_t_3
                0x0000000000019700                w_s34_t_4
                0x0000000000019728                w_s34_t_5
                0x0000000000019750                w_s34_t_6
                0x0000000000019778                w_s34_t_7
                0x00000000000197a0                w_s34_t_8
                0x00000000000197a4                w_s34_t_9
                0x00000000000197a8                w_s35_t_0
                0x00000000000197ac                w_s35_t_1
                0x00000000000197d4                w_s35_t_2
                0x00000000000197d8                w_s35_t_3
                0x0000000000019800                w_s35_t_4
                0x0000000000019804                w_s35_t_5
                0x000000000001982c                w_s35_t_6
                0x0000000000019854                w_s35_t_7
                0x000000000001987c                w_s35_t_8
                0x0000000000019880                w_s35_t_9
                0x0000000000019884                w_s36_t_0
                0x0000000000019888                w_s36_t_1
                0x000000000001988c                w_s36_t_2
                0x0000000000019890                w_s36_t_3
                0x0000000000019894                w_s36_t_4
                0x00000000000198bc                w_s36_t_5
                0x00000000000198e4                w_s36_t_6
                0x000000000001990c                w_s36_t_7
                0x0000000000019934                w_s36_t_8
                0x000000000001995c                w_s36_t_9
                0x0000000000019960                w_s37_t_0
                0x0000000000019964                w_s37_t_1
                0x000000000001998c                w_s37_t_2
                0x0000000000019990                w_s37_t_3
                0x00000000000199b8                w_s37_t_4
                0x00000000000199bc                w_s37_t_5
                0x00000000000199c0                w_s37_t_6
                0x00000000000199e8                w_s37_t_7
                0x0000000000019a10                w_s37_t_8
                0x0000000000019a38                w_s37_t_9
                0x0000000000019a3c                w_s38_t_0
                0x0000000000019a64                w_s38_t_1
                0x0000000000019a8c                w_s38_t_2
                0x0000000000019a90                w_s38_t_3
                0x0000000000019ab8                w_s38_t_4
                0x0000000000019ae0                w_s38_t_5
                0x0000000000019ae4                w_s38_t_6
                0x0000000000019b0c                w_s38_t_7
                0x0000000000019b10                w_s38_t_8
                0x0000000000019b14                w_s38_t_9
                0x0000000000019b18                w_s39_t_0
                0x0000000000019b1c                w_s39_t_1
                0x0000000000019b44                w_s39_t_2
                0x0000000000019b6c                w_s39_t_3
                0x0000000000019b94                w_s39_t_4
                0x0000000000019b98                w_s39_t_5
                0x0000000000019b9c                w_s39_t_6
                0x0000000000019ba0                w_s39_t_7
                0x0000000000019bc8                w_s39_t_8
                0x0000000000019bf0                w_s39_t_9
                0x0000000000019bf4                w_s40_t_0
                0x0000000000019bf8                w_s40_t_1
                0x0000000000019bfc                w_s40_t_2
                0x0000000000019c00                w_s40_t_3
                0x0000000000019c28                w_s40_t_4
                0x0000000000019c2c                w_s40_t_5
                0x0000000000019c54                w_s40_t_6
                0x0000000000019c7c                w_s40_t_7
                0x0000000000019c80                w_s40_t_8
                0x0000000000019ca8                w_s40_t_9
                0x0000000000019cd0                w_s41_t_0
                0x0000000000019cd4                w_s41_t_1
                0x0000000000019cd8                w_s41_t_2
                0x0000000000019d00                w_s41_t_3
                0x0000000000019d28                w_s41_t_4
                0x0000000000019d50                w_s41_t_5
                0x0000000000019d54                w_s41_t_6
                0x0000000000019d58                w_s41_t_7
                0x0000000000019d80                w_s41_t_8
                0x0000000000019d84                w_s41_t_9
                0x0000000000019dac                w_s42_t_0
                0x0000000000019db0                w_s42_t_1
                0x0000000000019dd8                w_s42_t_2
                0x0000000000019ddc                w_s42_t_3
                0x0000000000019e04                w_s42_t_4
                0x0000000000019e08                w_s42_t_5
                0x0000000000019e30                w_s42_t_6
                0x0000000000019e58                w_s42_t_7
                0x0000000000019e5c                w_s42_t_8
                0x0000000000019e60                w_s42_t_9
                0x0000000000019e88                w_s43_t_0
                0x0000000000019e8c                w_s43_t_1
                0x0000000000019eb4                w_s43_t_2
                0x0000000000019eb8                w_s43_t_3
                0x0000000000019ebc                w_s43_t_4
                0x0000000000019ee4                w_s43_t_5
                0x0000000000019ee8                w_s43_t_6
                0x0000000000019f10                w_s43_t_7
                0x0000000000019f38                w_s43_t_8
                0x0000000000019f60                w_s43_t_9
                0x0000000000019f64                w_s44_t_0
                0x0000000000019f68                w_s44_t_1
                0x0000000000019f6c                w_s44_t_2
                0x0000000000019f94                w_s44_t_3
                0x0000000000019f98                w_s44_t_4
                0x0000000000019fc0                w_s44_t_5
                0x0000000000019fe8                w_s44_t_6
                0x0000000000019fec                w_s44_t_7
                0x000000000001a014                w_s44_t_8
                0x000000000001a018                w_s44_t_9
                0x000000000001a040                w_s45_t_0
                0x000000000001a068                w_s45_t_1
                0x000000000001a090                w_s45_t_2
                0x000000000001a094                w_s45_t_3
                0x000000000001a098                w_s45_t_4
                0x000000000001a09c                w_s45_t_5
                0x000000000001a0c4                w_s45_t_6
                0x000000000001a0c8                w_s45_t_7
                0x000000000001a0f0                w_s45_t_8
                0x000000000001a0f4                w_s45_t_9
                0x000000000001a11c                w_s46_t_0
                0x000000000001a120                w_s46_t_1
                0x000000000001a148                w_s46_t_2
                0x000000000001a14c                w_s46_t_3
                0x000000000001a174                w_s46_t_4
                0x000000000001a19c                w_s46_t_5
                0x000000000001a1c4                w_s46_t_6
                0x000000000001a1c8                w_s46_t_7
                0x000000000001a1cc                w_s46_t_8
                0x000000000001a1f4                w_s46_t_9
                0x000000000001a1f8                w_s47_t_0
                0x000000000001a1fc                w_s47_t_1
                0x000000000001a200                w_s47_t_2
                0x000000000001a228                w_s47_t_3
                0x000000000001a22c                w_s47_t_4
                0x000000000001a254                w_s47_t_5
                0x000000000001a27c                w_s47_t_6
                0x000000000001a280                w_s47_t_7
                0x000000000001a2a8                w_s47_t_8
                0x000000000001a2ac                w_s47_t_9
                0x000000000001a2d4                w_s48_t_0
                0x000000000001a2d8                w_s48_t_1
                0x000000000001a2dc                w_s48_t_2
                0x000000000001a304                w_s48_t_3
                0x000000000001a32c                w_s48_t_4
                0x000000000001a354                w_s48_t_5
                0x000000000001a358                w_s48_t_6
                0x000000000001a380                w_s48_t_7
                0x000000000001a384                w_s48_t_8
                0x000000000001a388                w_s48_t_9
                0x000000000001a3b0                w_s49_t_0
                0x000000000001a3d8                w_s49_t_1
                0x000000000001a3dc                w_s49_t_2
                0x000000000001a3e0                w_s49_t_3
                0x000000000001a408                w_s49_t_4
                0x000000000001a40c                w_s49_t_5
                0x000000000001a434                w_s49_t_6
                0x000000000001a438                w_s49_t_7
                0x000000000001a460                w_s49_t_8
                0x000000000001a464                w_s49_t_9
                0x000000000001a48c                w_s50_t_0
                0x000000000001a4b4                w_s50_t_1
                0x000000000001a4dc                w_s50_t_2
                0x000000000001a504                w_s50_t_3
                0x000000000001a508                w_s50_t_4
                0x000000000001a50c                w_s50_t_5
                0x000000000001a510                w_s50_t_6
                0x000000000001a514                w_s50_t_7
                0x000000000001a53c                w_s50_t_8
                0x000000000001a540                w_s50_t_9
                0x000000000001a568                w_s51_t_0
                0x000000000001a56c                w_s51_t_1
                0x000000000001a570                w_s51_t_2
                0x000000000001a598                w_s51_t_3
                0x000000000001a59c                w_s51_t_4
                0x000000000001a5c4                w_s51_t_5
                0x000000000001a5ec                w_s51_t_6
                0x000000000001a614                w_s51_t_7
                0x000000000001a618                w_s51_t_8
                0x000000000001a61c                w_s51_t_9
                0x000000000001a644                w_s52_t_0
                0x000000000001a66c                w_s52_t_1
                0x000000000001a694                w_s52_t_2
                0x000000000001a698                w_s52_t_3
                0x000000000001a6c0                w_s52_t_4
                0x000000000001a6e8                w_s52_t_5
                0x000000000001a6ec                w_s52_t_6
                0x000000000001a6f0                w_s52_t_7
                0x000000000001a6f4                w_s52_t_9
                0x000000000001a71c                w_s53_t_0
                0x000000000001a720                w_s53_t_1
                0x000000000001a724                w_s53_t_2
                0x000000000001a74c                w_s53_t_3
                0x000000000001a750                w_s53_t_4
                0x000000000001a754                w_s53_t_5
                0x000000000001a77c                w_s53_t_6
                0x000000000001a7a4                w_s53_t_7
                0x000000000001a7cc                w_s53_t_8
                0x000000000001a7d0                w_s53_t_9
                0x000000000001a7f8                w_s54_t_0
                0x000000000001a820                w_s54_t_1
                0x000000000001a848                w_s54_t_2
                0x000000000001a84c                w_s54_t_3
                0x000000000001a850                w_s54_t_4
                0x000000000001a854                w_s54_t_5
                0x000000000001a87c                w_s54_t_6
                0x000000000001a880                w_s54_t_7
                0x000000000001a8a8                w_s54_t_8
                0x000000000001a8d0                w_s54_t_9
                0x000000000001a8d4                w_s55_t_0
                0x000000000001a8d8                w_s55_t_1
                0x000000000001a8dc                w_s55_t_2
                0x000000000001a904                w_s55_t_3
                0x000000000001a908                w_s55_t_4
                0x000000000001a930                w_s55_t_5
                0x000000000001a958                w_s55_t_6
                0x000000000001a980                w_s55_t_7
                0x000000000001a9a8                w_s55_t_8
                0x000000000001a9ac                w_s55_t_9
                0x000000000001a9b0                w_s56_t_0
                0x000000000001a9b4                w_s56_t_1
                0x000000000001a9b8                w_s56_t_2
                0x000000000001a9bc                w_s56_t_3
                0x000000000001a9c0                w_s56_t_4
                0x000000000001a9e8                w_s56_t_5
                0x000000000001aa10                w_s56_t_6
                0x000000000001aa38                w_s56_t_7
                0x000000000001aa60                w_s56_t_8
                0x000000000001aa64                w_s56_t_9
                0x000000000001aa8c                w_s57_t_0
                0x000000000001aa90                w_s57_t_1
                0x000000000001aa94                w_s57_t_2
                0x000000000001aabc                w_s57_t_3
                0x000000000001aac0                w_s57_t_4
                0x000000000001aae8                w_s57_t_5
                0x000000000001aaec                w_s57_t_6
                0x000000000001aaf0                w_s57_t_7
                0x000000000001ab18                w_s57_t_8
                0x000000000001ab40                w_s57_t_9
                0x000000000001ab68                w_s58_t_0
                0x000000000001ab90                w_s58_t_1
                0x000000000001abb8                w_s58_t_2
                0x000000000001abe0                w_s58_t_3
                0x000000000001ac08                w_s58_t_4
                0x000000000001ac0c                w_s58_t_5
                0x000000000001ac34                w_s58_t_6
                0x000000000001ac38                w_s58_t_7
                0x000000000001ac3c                w_s58_t_8
                0x000000000001ac40                w_s58_t_9
                0x000000000001ac44                w_s59_t_0
                0x000000000001ac48                w_s59_t_1
                0x000000000001ac4c                w_s59_t_2
                0x000000000001ac74                w_s59_t_3
                0x000000000001ac78                w_s59_t_4
                0x000000000001aca0                w_s59_t_5
                0x000000000001acc8                w_s59_t_6
                0x000000000001acf0                w_s59_t_7
                0x000000000001acf4                w_s59_t_8
                0x000000000001ad1c                w_s59_t_9
                0x000000000001ad20                w_s60_t_0
                0x000000000001ad24                w_s60_t_1
                0x000000000001ad4c                w_s60_t_2
                0x000000000001ad74                w_s60_t_3
                0x000000000001ad78                w_s60_t_4
                0x000000000001ada0                w_s60_t_5
                0x000000000001ada4                w_s60_t_6
                0x000000000001adcc                w_s60_t_7
                0x000000000001add0                w_s60_t_8
                0x000000000001adf8                w_s60_t_9
                0x000000000001adfc                w_s61_t_0
                0x000000000001ae24                w_s61_t_1
                0x000000000001ae28                w_s61_t_2
                0x000000000001ae2c                w_s61_t_3
                0x000000000001ae30                w_s61_t_4
                0x000000000001ae58                w_s61_t_5
                0x000000000001ae5c                w_s61_t_6
                0x000000000001ae84                w_s61_t_7
                0x000000000001aeac                w_s61_t_8
                0x000000000001aed4                w_s61_t_9
                0x000000000001aed8                w_s62_t_0
                0x000000000001af00                w_s62_t_1
                0x000000000001af04                w_s62_t_2
                0x000000000001af2c                w_s62_t_3
                0x000000000001af54                w_s62_t_4
                0x000000000001af58                w_s62_t_5
                0x000000000001af5c                w_s62_t_6
                0x000000000001af60                w_s62_t_7
                0x000000000001af88                w_s62_t_8
                0x000000000001af8c                w_s62_t_9
                0x000000000001afb4                w_s63_t_0
                0x000000000001afb8                w_s63_t_1
                0x000000000001afbc                w_s63_t_2
                0x000000000001afe4                w_s63_t_3
                0x000000000001afe8                w_s63_t_4
                0x000000000001b010                w_s63_t_5
                0x000000000001b038                w_s63_t_6
                0x000000000001b060                w_s63_t_7
                0x000000000001b064                w_s63_t_8
                0x000000000001b068                w_s63_t_9
                0x000000000001b090                w_s64_t_0
                0x000000000001b094                w_s64_t_1
                0x000000000001b098                w_s64_t_2
                0x000000000001b0c0                w_s64_t_3
                0x000000000001b0c4                w_s64_t_4
                0x000000000001b0ec                w_s64_t_5
                0x000000000001b114                w_s64_t_6
                0x000000000001b13c                w_s64_t_7
                0x000000000001b140                w_s64_t_8
                0x000000000001b168                w_s64_t_9
                0x000000000001b16c                w_s65_t_0
                0x000000000001b170                w_s65_t_1
                0x000000000001b174                w_s65_t_2
                0x000000000001b178                w_s65_t_3
                0x000000000001b1a0                w_s65_t_4
                0x000000000001b1a4                w_s65_t_5
                0x000000000001b1cc                w_s65_t_6
                0x000000000001b1f4                w_s65_t_7
                0x000000000001b1f8                w_s65_t_8
                0x000000000001b220                w_s65_t_9
                0x000000000001b248                w_s66_t_0
                0x000000000001b270                w_s66_t_1
                0x000000000001b298                w_s66_t_2
                0x000000000001b29c                w_s66_t_3
                0x000000000001b2a0                w_s66_t_4
                0x000000000001b2a4                w_s66_t_5
                0x000000000001b2cc                w_s66_t_6
                0x000000000001b2f4                w_s66_t_7
                0x000000000001b2f8                w_s66_t_8
                0x000000000001b320                w_s66_t_9
                0x000000000001b324                w_s67_t_0
                0x000000000001b328                w_s67_t_1
                0x000000000001b350                w_s67_t_2
                0x000000000001b354                w_s67_t_3
                0x000000000001b37c                w_s67_t_4
                0x000000000001b3a4                w_s67_t_5
                0x000000000001b3a8                w_s67_t_6
                0x000000000001b3ac                w_s67_t_7
                0x000000000001b3d4                w_s67_t_8
                0x000000000001b3d8                w_s67_t_9
                0x000000000001b400                w_s68_t_0
                0x000000000001b428                w_s68_t_1
                0x000000000001b450                w_s68_t_2
                0x000000000001b454                w_s68_t_3
                0x000000000001b47c                w_s68_t_4
                0x000000000001b480                w_s68_t_5
                0x000000000001b484                w_s68_t_6
                0x000000000001b4ac                w_s68_t_7
                0x000000000001b4b0                w_s68_t_8
                0x000000000001b4b4                w_s68_t_9
                0x000000000001b4dc                w_s69_t_0
                0x000000000001b504                w_s69_t_1
                0x000000000001b508                w_s69_t_2
                0x000000000001b530                w_s69_t_3
                0x000000000001b534                w_s69_t_4
                0x000000000001b55c                w_s69_t_5
                0x000000000001b560                w_s69_t_6
                0x000000000001b588                w_s69_t_7
                0x000000000001b58c                w_s69_t_8
                0x000000000001b5b4                w_s69_t_9
                0x000000000001b5b8                w_s70_t_0
                0x000000000001b5bc                w_s70_t_1
                0x000000000001b5c0                w_s70_t_2
                0x000000000001b5c4                w_s70_t_3
                0x000000000001b5ec                w_s70_t_4
                0x000000000001b614                w_s70_t_5
                0x000000000001b618                w_s70_t_6
                0x000000000001b640                w_s70_t_7
                0x000000000001b668                w_s70_t_8
                0x000000000001b690                w_s70_t_9
                0x000000000001b694                w_s71_t_0
                0x000000000001b698                w_s71_t_1
                0x000000000001b6c0                w_s71_t_2
                0x000000000001b6e8                w_s71_t_3
                0x000000000001b6ec                w_s71_t_4
                0x000000000001b6f0                w_s71_t_5
                0x000000000001b6f4                w_s71_t_6
                0x000000000001b71c                w_s71_t_7
                0x000000000001b744                w_s71_t_8
                0x000000000001b76c                w_s71_t_9
                0x000000000001b770                w_s72_t_0
                0x000000000001b798                w_s72_t_1
                0x000000000001b7c0                w_s72_t_2
                0x000000000001b7c4                w_s72_t_3
                0x000000000001b7c8                w_s72_t_4
                0x000000000001b7cc                w_s72_t_5
                0x000000000001b7f4                w_s72_t_6
                0x000000000001b7f8                w_s72_t_7
                0x000000000001b820                w_s72_t_8
                0x000000000001b824                w_s72_t_9
                0x000000000001b84c                w_s73_t_0
                0x000000000001b850                w_s73_t_1
                0x000000000001b854                w_s73_t_2
                0x000000000001b858                w_s73_t_3
                0x000000000001b85c                w_s73_t_4
                0x000000000001b860                w_s73_t_5
                0x000000000001b888                w_s73_t_6
                0x000000000001b8b0                w_s73_t_7
                0x000000000001b8d8                w_s73_t_8
                0x000000000001b900                w_s73_t_9
                0x000000000001b928                w_s74_t_0
                0x000000000001b92c                w_s74_t_1
                0x000000000001b930                w_s74_t_2
                0x000000000001b958                w_s74_t_3
                0x000000000001b95c                w_s74_t_4
                0x000000000001b984                w_s74_t_5
                0x000000000001b9ac                w_s74_t_6
                0x000000000001b9d4                w_s74_t_7
                0x000000000001b9d8                w_s74_t_8
                0x000000000001b9dc                w_s74_t_9
                0x000000000001ba04                w_s75_t_0
                0x000000000001ba08                w_s75_t_1
                0x000000000001ba0c                w_s75_t_2
                0x000000000001ba10                w_s75_t_3
                0x000000000001ba14                w_s75_t_4
                0x000000000001ba3c                w_s75_t_5
                0x000000000001ba40                w_s75_t_6
                0x000000000001ba68                w_s75_t_7
                0x000000000001ba90                w_s75_t_8
                0x000000000001bab8                w_s75_t_9
                0x000000000001bae0                w_s76_t_0
                0x000000000001bae4                w_s76_t_1
                0x000000000001bb0c                w_s76_t_2
                0x000000000001bb34                w_s76_t_3
                0x000000000001bb5c                w_s76_t_4
                0x000000000001bb60                w_s76_t_5
                0x000000000001bb88                w_s76_t_6
                0x000000000001bbb0                w_s76_t_7
                0x000000000001bbb4                w_s76_t_8
                0x000000000001bbb8                w_s76_t_9
                0x000000000001bbbc                w_s77_t_0
                0x000000000001bbc0                w_s77_t_1
                0x000000000001bbe8                w_s77_t_2
                0x000000000001bbec                w_s77_t_3
                0x000000000001bbf0                w_s77_t_4
                0x000000000001bbf4                w_s77_t_5
                0x000000000001bc1c                w_s77_t_6
                0x000000000001bc44                w_s77_t_7
                0x000000000001bc6c                w_s77_t_8
                0x000000000001bc70                w_s77_t_9
                0x000000000001bc98                w_s78_t_0
                0x000000000001bc9c                w_s78_t_1
                0x000000000001bcc4                w_s78_t_2
                0x000000000001bcec                w_s78_t_3
                0x000000000001bcf0                w_s78_t_4
                0x000000000001bd18                w_s78_t_5
                0x000000000001bd1c                w_s78_t_6
                0x000000000001bd20                w_s78_t_7
                0x000000000001bd48                w_s78_t_8
                0x000000000001bd70                w_s78_t_9
                0x000000000001bd74                w_s79_t_0
                0x000000000001bd78                w_s79_t_1
                0x000000000001bd7c                w_s79_t_2
                0x000000000001bda4                w_s79_t_3
                0x000000000001bda8                w_s79_t_4
                0x000000000001bdd0                w_s79_t_5
                0x000000000001bdf8                w_s79_t_6
                0x000000000001be20                w_s79_t_7
                0x000000000001be24                w_s79_t_8
                0x000000000001be28                w_s79_t_9
                0x000000000001be50                w_s80_t_0
                0x000000000001be78                w_s80_t_1
                0x000000000001be7c                w_s80_t_2
                0x000000000001bea4                w_s80_t_3
                0x000000000001bea8                w_s80_t_4
                0x000000000001bed0                w_s80_t_5
                0x000000000001bef8                w_s80_t_6
                0x000000000001befc                w_s80_t_7
                0x000000000001bf00                w_s80_t_8
                0x000000000001bf04                w_s80_t_9
                0x000000000001bf2c                w_s81_t_0
                0x000000000001bf30                w_s81_t_1
                0x000000000001bf58                w_s81_t_2
                0x000000000001bf80                w_s81_t_3
                0x000000000001bf84                w_s81_t_4
                0x000000000001bfac                w_s81_t_5
                0x000000000001bfb0                w_s81_t_6
                0x000000000001bfd8                w_s81_t_7
                0x000000000001bfdc                w_s81_t_8
                0x000000000001bfe0                w_s81_t_9
                0x000000000001c008                w_s82_t_0
                0x000000000001c00c                w_s82_t_1
                0x000000000001c034                w_s82_t_2
                0x000000000001c05c                w_s82_t_3
                0x000000000001c060                w_s82_t_4
                0x000000000001c064                w_s82_t_5
                0x000000000001c068                w_s82_t_6
                0x000000000001c090                w_s82_t_7
                0x000000000001c0b8                w_s82_t_8
                0x000000000001c0e0                w_s82_t_9
                0x000000000001c0e4                w_s83_t_0
                0x000000000001c10c                w_s83_t_1
                0x000000000001c110                w_s83_t_2
                0x000000000001c138                w_s83_t_3
                0x000000000001c13c                w_s83_t_4
                0x000000000001c140                w_s83_t_5
                0x000000000001c144                w_s83_t_6
                0x000000000001c16c                w_s83_t_7
                0x000000000001c194                w_s83_t_8
                0x000000000001c198                w_s83_t_9
                0x000000000001c1c0                w_s84_t_0
                0x000000000001c1e8                w_s84_t_1
                0x000000000001c210                w_s84_t_2
                0x000000000001c238                w_s84_t_3
                0x000000000001c23c                w_s84_t_4
                0x000000000001c240                w_s84_t_5
                0x000000000001c244                w_s84_t_6
                0x000000000001c248                w_s84_t_7
                0x000000000001c24c                w_s84_t_8
                0x000000000001c274                w_s84_t_9
                0x000000000001c29c                w_s85_t_0
                0x000000000001c2c4                w_s85_t_1
                0x000000000001c2ec                w_s85_t_2
                0x000000000001c2f0                w_s85_t_3
                0x000000000001c2f4                w_s85_t_4
                0x000000000001c31c                w_s85_t_5
                0x000000000001c344                w_s85_t_6
                0x000000000001c348                w_s85_t_7
                0x000000000001c370                w_s85_t_8
                0x000000000001c374                w_s85_t_9
                0x000000000001c378                w_s86_t_0
                0x000000000001c37c                w_s86_t_1
                0x000000000001c3a4                w_s86_t_2
                0x000000000001c3a8                w_s86_t_3
                0x000000000001c3ac                w_s86_t_4
                0x000000000001c3d4                w_s86_t_5
                0x000000000001c3fc                w_s86_t_6
                0x000000000001c424                w_s86_t_7
                0x000000000001c44c                w_s86_t_8
                0x000000000001c450                w_s86_t_9
                0x000000000001c454                w_s87_t_0
                0x000000000001c47c                w_s87_t_1
                0x000000000001c480                w_s87_t_2
                0x000000000001c4a8                w_s87_t_3
                0x000000000001c4ac                w_s87_t_4
                0x000000000001c4b0                w_s87_t_5
                0x000000000001c4b4                w_s87_t_6
                0x000000000001c4b8                w_s87_t_7
                0x000000000001c4e0                w_s87_t_8
                0x000000000001c508                w_s87_t_9
                0x000000000001c530                w_s88_t_0
                0x000000000001c534                w_s88_t_1
                0x000000000001c55c                w_s88_t_2
                0x000000000001c584                w_s88_t_3
                0x000000000001c588                w_s88_t_4
                0x000000000001c5b0                w_s88_t_5
                0x000000000001c5d8                w_s88_t_6
                0x000000000001c5dc                w_s88_t_7
                0x000000000001c5e0                w_s88_t_8
                0x000000000001c5e4                w_s88_t_9
                0x000000000001c60c                w_s89_t_0
                0x000000000001c610                w_s89_t_1
                0x000000000001c638                w_s89_t_2
                0x000000000001c660                w_s89_t_3
                0x000000000001c664                w_s89_t_4
                0x000000000001c68c                w_s89_t_5
                0x000000000001c690                w_s89_t_6
                0x000000000001c694                w_s89_t_7
                0x000000000001c6bc                w_s89_t_8
                0x000000000001c6c0                w_s89_t_9
                0x000000000001c6e8                w_s90_t_0
                0x000000000001c6ec                w_s90_t_1
                0x000000000001c714                w_s90_t_2
                0x000000000001c718                w_s90_t_3
                0x000000000001c71c                w_s90_t_4
                0x000000000001c744                w_s90_t_5
                0x000000000001c748                w_s90_t_6
                0x000000000001c770                w_s90_t_7
                0x000000000001c774                w_s90_t_8
                0x000000000001c79c                w_s90_t_9
                0x000000000001c7c4                w_s91_t_0
                0x000000000001c7c8                w_s91_t_1
                0x000000000001c7f0                w_s91_t_2
                0x000000000001c818                w_s91_t_3
                0x000000000001c840                w_s91_t_4
                0x000000000001c844                w_s91_t_5
                0x000000000001c848                w_s91_t_6
                0x000000000001c84c                w_s91_t_7
                0x000000000001c850                w_s91_t_8
                0x000000000001c878                w_s91_t_9
                0x000000000001c8a0                w_s92_t_0
                0x000000000001c8c8                w_s92_t_1
                0x000000000001c8cc                w_s92_t_2
                0x000000000001c8f4                w_s92_t_3
                0x000000000001c91c                w_s92_t_4
                0x000000000001c920                w_s92_t_5
                0x000000000001c948                w_s92_t_6
                0x000000000001c94c                w_s92_t_7
                0x000000000001c974                w_s92_t_8
                0x000000000001c978                w_s92_t_9
                0x000000000001c97c                w_s93_t_0
                0x000000000001c9a4                w_s93_t_1
                0x000000000001c9cc                w_s93_t_2
                0x000000000001c9f4                w_s93_t_3
                0x000000000001c9f8                w_s93_t_4
                0x000000000001c9fc                w_s93_t_5
                0x000000000001ca24                w_s93_t_6
                0x000000000001ca4c                w_s93_t_7
                0x000000000001ca50                w_s93_t_8
                0x000000000001ca54                w_s93_t_9
                0x000000000001ca58                w_s94_t_0
                0x000000000001ca5c                w_s94_t_1
                0x000000000001ca84                w_s94_t_2
                0x000000000001caac                w_s94_t_3
                0x000000000001cab0                w_s94_t_4
                0x000000000001cad8                w_s94_t_5
                0x000000000001cb00                w_s94_t_6
                0x000000000001cb04                w_s94_t_7
                0x000000000001cb08                w_s94_t_8
                0x000000000001cb0c                w_s94_t_9
                0x000000000001cb34                w_s95_t_0
                0x000000000001cb5c                w_s95_t_1
                0x000000000001cb60                w_s95_t_2
                0x000000000001cb64                w_s95_t_3
                0x000000000001cb68                w_s95_t_4
                0x000000000001cb90                w_s95_t_5
                0x000000000001cb94                w_s95_t_6
                0x000000000001cbbc                w_s95_t_7
                0x000000000001cbc0                w_s95_t_8
                0x000000000001cbe8                w_s95_t_9
                0x000000000001cc10                w_s96_t_0
                0x000000000001cc14                w_s96_t_1
                0x000000000001cc18                w_s96_t_2
                0x000000000001cc1c                w_s96_t_3
                0x000000000001cc44                w_s96_t_4
                0x000000000001cc6c                w_s96_t_5
                0x000000000001cc94                w_s96_t_6
                0x000000000001ccbc                w_s96_t_7
                0x000000000001cce4                w_s96_t_8
                0x000000000001cce8                w_s96_t_9
                0x000000000001ccec                w_s97_t_0
                0x000000000001ccf0                w_s97_t_1
                0x000000000001cd18                w_s97_t_2
                0x000000000001cd1c                w_s97_t_3
                0x000000000001cd20                w_s97_t_4
                0x000000000001cd48                w_s97_t_5
                0x000000000001cd70                w_s97_t_6
                0x000000000001cd98                w_s97_t_7
                0x000000000001cd9c                w_s97_t_8
                0x000000000001cda0                w_s97_t_9
                0x000000000001cdc8                w_s98_t_0
                0x000000000001cdf0                w_s98_t_1
                0x000000000001ce18                w_s98_t_2
                0x000000000001ce1c                w_s98_t_3
                0x000000000001ce20                w_s98_t_4
                0x000000000001ce24                w_s98_t_5
                0x000000000001ce4c                w_s98_t_6
                0x000000000001ce50                w_s98_t_7
                0x000000000001ce54                w_s98_t_8
                0x000000000001ce7c                w_s98_t_9
                0x000000000001cea4                w_s99_t_0
                0x000000000001cea8                w_s99_t_1
                0x000000000001ced0                w_s99_t_2
                0x000000000001ced4                w_s99_t_3
                0x000000000001ced8                w_s99_t_4
                0x000000000001cedc                w_s99_t_5
                0x000000000001cee0                w_s99_t_6
                0x000000000001cf08                w_s99_t_7
                0x000000000001cf30                w_s99_t_8
                0x000000000001cf58                w_s99_t_9
                0x000000000001cf80                p_s0_t_0
                0x000000000001cfa8                p_s0_t_1
                0x000000000001cfd0                p_s0_t_2
                0x000000000001cfd4                p_s0_t_3
                0x000000000001cfd8                p_s0_t_4
                0x000000000001cfdc                p_s0_t_5
                0x000000000001d004                p_s0_t_6
                0x000000000001d008                p_s0_t_7
                0x000000000001d030                p_s0_t_8
                0x000000000001d058                p_s0_t_9
                0x000000000001d05c                p_s1_t_0
                0x000000000001d084                p_s1_t_1
                0x000000000001d088                p_s1_t_2
                0x000000000001d0b0                p_s1_t_3
                0x000000000001d0b4                p_s1_t_4
                0x000000000001d0b8                p_s1_t_5
                0x000000000001d0bc                p_s1_t_6
                0x000000000001d0e4                p_s1_t_7
                0x000000000001d0e8                p_s1_t_8
                0x000000000001d110                p_s1_t_9
                0x000000000001d138                p_s2_t_0
                0x000000000001d160                p_s2_t_1
                0x000000000001d164                p_s2_t_2
                0x000000000001d168                p_s2_t_3
                0x000000000001d190                p_s2_t_4
                0x000000000001d194                p_s2_t_5
                0x000000000001d1bc                p_s2_t_6
                0x000000000001d1e4                p_s2_t_7
                0x000000000001d1e8                p_s2_t_8
                0x000000000001d1ec                p_s2_t_9
                0x000000000001d214                p_s3_t_0
                0x000000000001d218                p_s3_t_1
                0x000000000001d240                p_s3_t_2
                0x000000000001d268                p_s3_t_3
                0x000000000001d26c                p_s3_t_4
                0x000000000001d294                p_s3_t_5
                0x000000000001d298                p_s3_t_6
                0x000000000001d2c0                p_s3_t_7
                0x000000000001d2c4                p_s3_t_8
                0x000000000001d2c8                p_s3_t_9
                0x000000000001d2f0                p_s4_t_0
                0x000000000001d318                p_s4_t_1
                0x000000000001d31c                p_s4_t_2
                0x000000000001d320                p_s4_t_3
                0x000000000001d324                p_s4_t_4
                0x000000000001d34c                p_s4_t_5
                0x000000000001d374                p_s4_t_6
                0x000000000001d39c                p_s4_t_7
                0x000000000001d3c4                p_s4_t_8
                0x000000000001d3c8                p_s4_t_9
                0x000000000001d3cc                p_s5_t_0
                0x000000000001d3f4                p_s5_t_1
                0x000000000001d3f8                p_s5_t_2
                0x000000000001d3fc                p_s5_t_3
                0x000000000001d424                p_s5_t_4
                0x000000000001d44c                p_s5_t_5
                0x000000000001d474                p_s5_t_6
                0x000000000001d49c                p_s5_t_7
                0x000000000001d4a0                p_s5_t_8
                0x000000000001d4a4                p_s5_t_9
                0x000000000001d4a8                p_s6_t_0
                0x000000000001d4ac                p_s6_t_1
                0x000000000001d4b0                p_s6_t_2
                0x000000000001d4b4                p_s6_t_3
                0x000000000001d4dc                p_s6_t_4
                0x000000000001d504                p_s6_t_5
                0x000000000001d508                p_s6_t_6
                0x000000000001d530                p_s6_t_7
                0x000000000001d558                p_s6_t_8
                0x000000000001d580                p_s6_t_9
                0x000000000001d584                p_s7_t_0
                0x000000000001d5ac                p_s7_t_1
                0x000000000001d5b0                p_s7_t_2
                0x000000000001d5d8                p_s7_t_3
                0x000000000001d5dc                p_s7_t_4
                0x000000000001d5e0                p_s7_t_5
                0x000000000001d608                p_s7_t_6
                0x000000000001d60c                p_s7_t_7
                0x000000000001d610                p_s7_t_8
                0x000000000001d638                p_s7_t_9
                0x000000000001d660                p_s8_t_0
                0x000000000001d688                p_s8_t_1
                0x000000000001d68c                p_s8_t_2
                0x000000000001d690                p_s8_t_3
                0x000000000001d6b8                p_s8_t_4
                0x000000000001d6e0                p_s8_t_5
                0x000000000001d6e4                p_s8_t_6
                0x000000000001d6e8                p_s8_t_7
                0x000000000001d710                p_s8_t_8
                0x000000000001d714                p_s8_t_9
                0x000000000001d73c                p_s9_t_0
                0x000000000001d764                p_s9_t_1
                0x000000000001d768                p_s9_t_2
                0x000000000001d790                p_s9_t_3
                0x000000000001d7b8                p_s9_t_4
                0x000000000001d7bc                p_s9_t_5
                0x000000000001d7c0                p_s9_t_6
                0x000000000001d7c4                p_s9_t_7
                0x000000000001d7ec                p_s9_t_8
                0x000000000001d7f0                p_s9_t_9
                0x000000000001d818                p_s10_t_0
                0x000000000001d840                p_s10_t_1
                0x000000000001d868                p_s10_t_2
                0x000000000001d890                p_s10_t_3
                0x000000000001d894                p_s10_t_4
                0x000000000001d898                p_s10_t_5
                0x000000000001d8c0                p_s10_t_6
                0x000000000001d8c4                p_s10_t_7
                0x000000000001d8c8                p_s10_t_8
                0x000000000001d8cc                p_s10_t_9
                0x000000000001d8f4                p_s11_t_0
                0x000000000001d8f8                p_s11_t_1
                0x000000000001d920                p_s11_t_2
                0x000000000001d924                p_s11_t_3
                0x000000000001d928                p_s11_t_4
                0x000000000001d92c                p_s11_t_5
                0x000000000001d954                p_s11_t_6
                0x000000000001d97c                p_s11_t_7
                0x000000000001d980                p_s11_t_8
                0x000000000001d9a8                p_s11_t_9
                0x000000000001d9d0                p_s12_t_0
                0x000000000001d9d4                p_s12_t_1
                0x000000000001d9d8                p_s12_t_2
                0x000000000001da00                p_s12_t_3
                0x000000000001da28                p_s12_t_4
                0x000000000001da50                p_s12_t_5
                0x000000000001da78                p_s12_t_6
                0x000000000001da7c                p_s12_t_7
                0x000000000001daa4                p_s12_t_8
                0x000000000001daa8                p_s12_t_9
                0x000000000001daac                p_s13_t_0
                0x000000000001dad4                p_s13_t_1
                0x000000000001dad8                p_s13_t_2
                0x000000000001dadc                p_s13_t_3
                0x000000000001db04                p_s13_t_4
                0x000000000001db2c                p_s13_t_5
                0x000000000001db54                p_s13_t_6
                0x000000000001db58                p_s13_t_7
                0x000000000001db80                p_s13_t_8
                0x000000000001db84                p_s13_t_9
                0x000000000001db88                p_s14_t_0
                0x000000000001db8c                p_s14_t_1
                0x000000000001db90                p_s14_t_2
                0x000000000001dbb8                p_s14_t_3
                0x000000000001dbe0                p_s14_t_4
                0x000000000001dbe4                p_s14_t_5
                0x000000000001dbe8                p_s14_t_6
                0x000000000001dc10                p_s14_t_7
                0x000000000001dc38                p_s14_t_8
                0x000000000001dc60                p_s14_t_9
                0x000000000001dc64                p_s15_t_0
                0x000000000001dc68                p_s15_t_1
                0x000000000001dc6c                p_s15_t_2
                0x000000000001dc94                p_s15_t_3
                0x000000000001dcbc                p_s15_t_4
                0x000000000001dcc0                p_s15_t_5
                0x000000000001dcc4                p_s15_t_6
                0x000000000001dcec                p_s15_t_7
                0x000000000001dcf0                p_s15_t_8
                0x000000000001dd18                p_s15_t_9
                0x000000000001dd40                p_s16_t_0
                0x000000000001dd44                p_s16_t_1
                0x000000000001dd48                p_s16_t_2
                0x000000000001dd70                p_s16_t_3
                0x000000000001dd98                p_s16_t_4
                0x000000000001ddc0                p_s16_t_5
                0x000000000001ddc4                p_s16_t_6
                0x000000000001ddc8                p_s16_t_7
                0x000000000001ddf0                p_s16_t_8
                0x000000000001de18                p_s16_t_9
                0x000000000001de1c                p_s17_t_0
                0x000000000001de20                p_s17_t_1
                0x000000000001de48                p_s17_t_2
                0x000000000001de70                p_s17_t_3
                0x000000000001de74                p_s17_t_4
                0x000000000001de9c                p_s17_t_5
                0x000000000001dec4                p_s17_t_6
                0x000000000001deec                p_s17_t_7
                0x000000000001def0                p_s17_t_8
                0x000000000001def4                p_s17_t_9
                0x000000000001def8                p_s18_t_0
                0x000000000001defc                p_s18_t_1
                0x000000000001df24                p_s18_t_2
                0x000000000001df28                p_s18_t_3
                0x000000000001df50                p_s18_t_4
                0x000000000001df54                p_s18_t_5
                0x000000000001df7c                p_s18_t_6
                0x000000000001dfa4                p_s18_t_7
                0x000000000001dfa8                p_s18_t_8
                0x000000000001dfac                p_s18_t_9
                0x000000000001dfd4                p_s19_t_0
                0x000000000001dffc                p_s19_t_1
                0x000000000001e024                p_s19_t_2
                0x000000000001e04c                p_s19_t_3
                0x000000000001e050                p_s19_t_4
                0x000000000001e078                p_s19_t_5
                0x000000000001e07c                p_s19_t_6
                0x000000000001e080                p_s19_t_7
                0x000000000001e0a8                p_s19_t_8
                0x000000000001e0ac                p_s19_t_9
                0x000000000001e0b0                p_s20_t_0
                0x000000000001e0b4                p_s20_t_1
                0x000000000001e0b8                p_s20_t_2
                0x000000000001e0e0                p_s20_t_3
                0x000000000001e0e4                p_s20_t_4
                0x000000000001e10c                p_s20_t_5
                0x000000000001e134                p_s20_t_6
                0x000000000001e15c                p_s20_t_7
                0x000000000001e160                p_s20_t_8
                0x000000000001e164                p_s20_t_9
                0x000000000001e18c                p_s21_t_0
                0x000000000001e1b4                p_s21_t_1
                0x000000000001e1dc                p_s21_t_2
                0x000000000001e1e0                p_s21_t_3
                0x000000000001e1e4                p_s21_t_4
                0x000000000001e1e8                p_s21_t_5
                0x000000000001e210                p_s21_t_6
                0x000000000001e214                p_s21_t_7
                0x000000000001e23c                p_s21_t_8
                0x000000000001e264                p_s21_t_9
                0x000000000001e268                p_s22_t_0
                0x000000000001e26c                p_s22_t_1
                0x000000000001e270                p_s22_t_2
                0x000000000001e298                p_s22_t_3
                0x000000000001e29c                p_s22_t_4
                0x000000000001e2a0                p_s22_t_5
                0x000000000001e2c8                p_s22_t_6
                0x000000000001e2f0                p_s22_t_7
                0x000000000001e2f4                p_s22_t_8
                0x000000000001e31c                p_s22_t_9
                0x000000000001e344                p_s23_t_0
                0x000000000001e348                p_s23_t_1
                0x000000000001e370                p_s23_t_2
                0x000000000001e374                p_s23_t_3
                0x000000000001e39c                p_s23_t_4
                0x000000000001e3c4                p_s23_t_5
                0x000000000001e3c8                p_s23_t_6
                0x000000000001e3cc                p_s23_t_7
                0x000000000001e3f4                p_s23_t_8
                0x000000000001e41c                p_s23_t_9
                0x000000000001e420                p_s24_t_0
                0x000000000001e424                p_s24_t_1
                0x000000000001e44c                p_s24_t_2
                0x000000000001e474                p_s24_t_3
                0x000000000001e478                p_s24_t_4
                0x000000000001e4a0                p_s24_t_5
                0x000000000001e4a4                p_s24_t_6
                0x000000000001e4cc                p_s24_t_7
                0x000000000001e4d0                p_s24_t_8
                0x000000000001e4d4                p_s24_t_9
                0x000000000001e4fc                p_s25_t_0
                0x000000000001e500                p_s25_t_1
                0x000000000001e528                p_s25_t_2
                0x000000000001e550                p_s25_t_3
                0x000000000001e554                p_s25_t_4
                0x000000000001e558                p_s25_t_5
                0x000000000001e55c                p_s25_t_6
                0x000000000001e584                p_s25_t_7
                0x000000000001e588                p_s25_t_8
                0x000000000001e5b0                p_s25_t_9
                0x000000000001e5d8                p_s26_t_0
                0x000000000001e5dc                p_s26_t_1
                0x000000000001e5e0                p_s26_t_2
                0x000000000001e608                p_s26_t_3
                0x000000000001e60c                p_s26_t_4
                0x000000000001e634                p_s26_t_5
                0x000000000001e65c                p_s26_t_6
                0x000000000001e660                p_s26_t_7
                0x000000000001e664                p_s26_t_8
                0x000000000001e68c                p_s26_t_9
                0x000000000001e6b4                p_s27_t_0
                0x000000000001e6dc                p_s27_t_1
                0x000000000001e6e0                p_s27_t_2
                0x000000000001e708                p_s27_t_3
                0x000000000001e730                p_s27_t_4
                0x000000000001e734                p_s27_t_5
                0x000000000001e738                p_s27_t_6
                0x000000000001e73c                p_s27_t_7
                0x000000000001e764                p_s27_t_8
                0x000000000001e78c                p_s27_t_9
                0x000000000001e790                p_s28_t_0
                0x000000000001e7b8                p_s28_t_1
                0x000000000001e7bc                p_s28_t_2
                0x000000000001e7e4                p_s28_t_3
                0x000000000001e7e8                p_s28_t_4
                0x000000000001e810                p_s28_t_5
                0x000000000001e814                p_s28_t_6
                0x000000000001e818                p_s28_t_7
                0x000000000001e81c                p_s28_t_8
                0x000000000001e844                p_s28_t_9
                0x000000000001e86c                p_s29_t_0
                0x000000000001e894                p_s29_t_1
                0x000000000001e898                p_s29_t_2
                0x000000000001e8c0                p_s29_t_3
                0x000000000001e8e8                p_s29_t_4
                0x000000000001e8ec                p_s29_t_5
                0x000000000001e914                p_s29_t_6
                0x000000000001e918                p_s29_t_7
                0x000000000001e940                p_s29_t_8
                0x000000000001e944                p_s29_t_9
                0x000000000001e948                p_s30_t_0
                0x000000000001e94c                p_s30_t_1
                0x000000000001e974                p_s30_t_2
                0x000000000001e99c                p_s30_t_3
                0x000000000001e9c4                p_s30_t_4
                0x000000000001e9c8                p_s30_t_5
                0x000000000001e9f0                p_s30_t_6
                0x000000000001e9f4                p_s30_t_7
                0x000000000001e9f8                p_s30_t_8
                0x000000000001e9fc                p_s30_t_9
                0x000000000001ea24                p_s31_t_0
                0x000000000001ea4c                p_s31_t_1
                0x000000000001ea50                p_s31_t_2
                0x000000000001ea78                p_s31_t_3
                0x000000000001eaa0                p_s31_t_4
                0x000000000001eaa4                p_s31_t_5
                0x000000000001eaa8                p_s31_t_6
                0x000000000001ead0                p_s31_t_7
                0x000000000001ead4                p_s31_t_8
                0x000000000001ead8                p_s31_t_9
                0x000000000001eb00                p_s32_t_0
                0x000000000001eb28                p_s32_t_1
                0x000000000001eb50                p_s32_t_2
                0x000000000001eb54                p_s32_t_3
                0x000000000001eb7c                p_s32_t_4
                0x000000000001eb80                p_s32_t_5
                0x000000000001eb84                p_s32_t_6
                0x000000000001ebac                p_s32_t_7
                0x000000000001ebb0                p_s32_t_8
                0x000000000001ebb4                p_s32_t_9
                0x000000000001ebdc                p_s33_t_0
                0x000000000001ec04                p_s33_t_1
                0x000000000001ec08                p_s33_t_2
                0x000000000001ec0c                p_s33_t_3
                0x000000000001ec10                p_s33_t_4
                0x000000000001ec38                p_s33_t_5
                0x000000000001ec60                p_s33_t_6
                0x000000000001ec64                p_s33_t_7
                0x000000000001ec68                p_s33_t_8
                0x000000000001ec90                p_s33_t_9
                0x000000000001ecb8                p_s34_t_0
                0x000000000001ecbc                p_s34_t_1
                0x000000000001ece4                p_s34_t_2
                0x000000000001ece8                p_s34_t_3
                0x000000000001ecec                p_s34_t_4
                0x000000000001ed14                p_s34_t_5
                0x000000000001ed3c                p_s34_t_6
                0x000000000001ed64                p_s34_t_7
                0x000000000001ed8c                p_s34_t_8
                0x000000000001ed90                p_s34_t_9
                0x000000000001ed94                p_s35_t_0
                0x000000000001ed98                p_s35_t_1
                0x000000000001edc0                p_s35_t_2
                0x000000000001edc4                p_s35_t_3
                0x000000000001edec                p_s35_t_4
                0x000000000001edf0                p_s35_t_5
                0x000000000001ee18                p_s35_t_6
                0x000000000001ee40                p_s35_t_7
                0x000000000001ee68                p_s35_t_8
                0x000000000001ee6c                p_s35_t_9
                0x000000000001ee70                p_s36_t_0
                0x000000000001ee74                p_s36_t_1
                0x000000000001ee78                p_s36_t_2
                0x000000000001ee7c                p_s36_t_3
                0x000000000001ee80                p_s36_t_4
                0x000000000001eea8                p_s36_t_5
                0x000000000001eed0                p_s36_t_6
                0x000000000001eef8                p_s36_t_7
                0x000000000001ef20                p_s36_t_8
                0x000000000001ef48                p_s36_t_9
                0x000000000001ef4c                p_s37_t_0
                0x000000000001ef50                p_s37_t_1
                0x000000000001ef78                p_s37_t_2
                0x000000000001ef7c                p_s37_t_3
                0x000000000001efa4                p_s37_t_4
                0x000000000001efa8                p_s37_t_5
                0x000000000001efac                p_s37_t_6
                0x000000000001efd4                p_s37_t_7
                0x000000000001effc                p_s37_t_8
                0x000000000001f024                p_s37_t_9
                0x000000000001f028                p_s38_t_0
                0x000000000001f050                p_s38_t_1
                0x000000000001f078                p_s38_t_2
                0x000000000001f07c                p_s38_t_3
                0x000000000001f0a4                p_s38_t_4
                0x000000000001f0cc                p_s38_t_5
                0x000000000001f0d0                p_s38_t_6
                0x000000000001f0f8                p_s38_t_7
                0x000000000001f0fc                p_s38_t_8
                0x000000000001f100                p_s38_t_9
                0x000000000001f104                p_s39_t_0
                0x000000000001f108                p_s39_t_1
                0x000000000001f130                p_s39_t_2
                0x000000000001f158                p_s39_t_3
                0x000000000001f180                p_s39_t_4
                0x000000000001f184                p_s39_t_5
                0x000000000001f188                p_s39_t_6
                0x000000000001f18c                p_s39_t_7
                0x000000000001f1b4                p_s39_t_8
                0x000000000001f1dc                p_s39_t_9
                0x000000000001f1e0                p_s40_t_0
                0x000000000001f1e4                p_s40_t_1
                0x000000000001f1e8                p_s40_t_2
                0x000000000001f1ec                p_s40_t_3
                0x000000000001f214                p_s40_t_4
                0x000000000001f218                p_s40_t_5
                0x000000000001f240                p_s40_t_6
                0x000000000001f268                p_s40_t_7
                0x000000000001f26c                p_s40_t_8
                0x000000000001f294                p_s40_t_9
                0x000000000001f2bc                p_s41_t_0
                0x000000000001f2c0                p_s41_t_1
                0x000000000001f2c4                p_s41_t_2
                0x000000000001f2ec                p_s41_t_3
                0x000000000001f314                p_s41_t_4
                0x000000000001f33c                p_s41_t_5
                0x000000000001f340                p_s41_t_6
                0x000000000001f344                p_s41_t_7
                0x000000000001f36c                p_s41_t_8
                0x000000000001f370                p_s41_t_9
                0x000000000001f398                p_s42_t_0
                0x000000000001f39c                p_s42_t_1
                0x000000000001f3c4                p_s42_t_2
                0x000000000001f3c8                p_s42_t_3
                0x000000000001f3f0                p_s42_t_4
                0x000000000001f3f4                p_s42_t_5
                0x000000000001f41c                p_s42_t_6
                0x000000000001f444                p_s42_t_7
                0x000000000001f448                p_s42_t_8
                0x000000000001f44c                p_s42_t_9
                0x000000000001f474                p_s43_t_0
                0x000000000001f478                p_s43_t_1
                0x000000000001f4a0                p_s43_t_2
                0x000000000001f4a4                p_s43_t_3
                0x000000000001f4a8                p_s43_t_4
                0x000000000001f4d0                p_s43_t_5
                0x000000000001f4d4                p_s43_t_6
                0x000000000001f4fc                p_s43_t_7
                0x000000000001f524                p_s43_t_8
                0x000000000001f54c                p_s43_t_9
                0x000000000001f550                p_s44_t_0
                0x000000000001f554                p_s44_t_1
                0x000000000001f558                p_s44_t_2
                0x000000000001f580                p_s44_t_3
                0x000000000001f584                p_s44_t_4
                0x000000000001f5ac                p_s44_t_5
                0x000000000001f5d4                p_s44_t_6
                0x000000000001f5d8                p_s44_t_7
                0x000000000001f600                p_s44_t_8
                0x000000000001f604                p_s44_t_9
                0x000000000001f62c                p_s45_t_0
                0x000000000001f654                p_s45_t_1
                0x000000000001f67c                p_s45_t_2
                0x000000000001f680                p_s45_t_3
                0x000000000001f684                p_s45_t_4
                0x000000000001f688                p_s45_t_5
                0x000000000001f6b0                p_s45_t_6
                0x000000000001f6b4                p_s45_t_7
                0x000000000001f6dc                p_s45_t_8
                0x000000000001f6e0                p_s45_t_9
                0x000000000001f708                p_s46_t_0
                0x000000000001f70c                p_s46_t_1
                0x000000000001f734                p_s46_t_2
                0x000000000001f738                p_s46_t_3
                0x000000000001f760                p_s46_t_4
                0x000000000001f788                p_s46_t_5
                0x000000000001f7b0                p_s46_t_6
                0x000000000001f7b4                p_s46_t_7
                0x000000000001f7b8                p_s46_t_8
                0x000000000001f7e0                p_s46_t_9
                0x000000000001f7e4                p_s47_t_0
                0x000000000001f7e8                p_s47_t_1
                0x000000000001f7ec                p_s47_t_2
                0x000000000001f814                p_s47_t_3
                0x000000000001f818                p_s47_t_4
                0x000000000001f840                p_s47_t_5
                0x000000000001f868                p_s47_t_6
                0x000000000001f86c                p_s47_t_7
                0x000000000001f894                p_s47_t_8
                0x000000000001f898                p_s47_t_9
                0x000000000001f8c0                p_s48_t_0
                0x000000000001f8c4                p_s48_t_1
                0x000000000001f8c8                p_s48_t_2
                0x000000000001f8f0                p_s48_t_3
                0x000000000001f918                p_s48_t_4
                0x000000000001f940                p_s48_t_5
                0x000000000001f944                p_s48_t_6
                0x000000000001f96c                p_s48_t_7
                0x000000000001f970                p_s48_t_8
                0x000000000001f974                p_s48_t_9
                0x000000000001f99c                p_s49_t_0
                0x000000000001f9c4                p_s49_t_1
                0x000000000001f9c8                p_s49_t_2
                0x000000000001f9cc                p_s49_t_3
                0x000000000001f9f4                p_s49_t_4
                0x000000000001f9f8                p_s49_t_5
                0x000000000001fa20                p_s49_t_6
                0x000000000001fa24                p_s49_t_7
                0x000000000001fa4c                p_s49_t_8
                0x000000000001fa50                p_s49_t_9
                0x000000000001fa78                p_s50_t_0
                0x000000000001faa0                p_s50_t_1
                0x000000000001fac8                p_s50_t_2
                0x000000000001faf0                p_s50_t_3
                0x000000000001faf4                p_s50_t_4
                0x000000000001faf8                p_s50_t_5
                0x000000000001fafc                p_s50_t_6
                0x000000000001fb00                p_s50_t_7
                0x000000000001fb28                p_s50_t_8
                0x000000000001fb2c                p_s50_t_9
                0x000000000001fb54                p_s51_t_0
                0x000000000001fb58                p_s51_t_1
                0x000000000001fb5c                p_s51_t_2
                0x000000000001fb84                p_s51_t_3
                0x000000000001fb88                p_s51_t_4
                0x000000000001fbb0                p_s51_t_5
                0x000000000001fbd8                p_s51_t_6
                0x000000000001fc00                p_s51_t_7
                0x000000000001fc04                p_s51_t_8
                0x000000000001fc08                p_s51_t_9
                0x000000000001fc30                p_s52_t_0
                0x000000000001fc58                p_s52_t_1
                0x000000000001fc80                p_s52_t_2
                0x000000000001fc84                p_s52_t_3
                0x000000000001fcac                p_s52_t_4
                0x000000000001fcd4                p_s52_t_5
                0x000000000001fcd8                p_s52_t_6
                0x000000000001fcdc                p_s52_t_7
                0x000000000001fce0                p_s52_t_8
                0x000000000001fce4                p_s52_t_9
                0x000000000001fd0c                p_s53_t_0
                0x000000000001fd10                p_s53_t_1
                0x000000000001fd14                p_s53_t_2
                0x000000000001fd3c                p_s53_t_3
                0x000000000001fd40                p_s53_t_4
                0x000000000001fd44                p_s53_t_5
                0x000000000001fd6c                p_s53_t_6
                0x000000000001fd94                p_s53_t_7
                0x000000000001fdbc                p_s53_t_8
                0x000000000001fdc0                p_s53_t_9
                0x000000000001fde8                p_s54_t_0
                0x000000000001fe10                p_s54_t_1
                0x000000000001fe38                p_s54_t_2
                0x000000000001fe3c                p_s54_t_3
                0x000000000001fe40                p_s54_t_4
                0x000000000001fe44                p_s54_t_5
                0x000000000001fe6c                p_s54_t_6
                0x000000000001fe70                p_s54_t_7
                0x000000000001fe98                p_s54_t_8
                0x000000000001fec0                p_s54_t_9
                0x000000000001fec4                p_s55_t_0
                0x000000000001fec8                p_s55_t_1
                0x000000000001fecc                p_s55_t_2
                0x000000000001fef4                p_s55_t_3
                0x000000000001fef8                p_s55_t_4
                0x000000000001ff20                p_s55_t_5
                0x000000000001ff48                p_s55_t_6
                0x000000000001ff70                p_s55_t_7
                0x000000000001ff98                p_s55_t_8
                0x000000000001ff9c                p_s55_t_9
                0x000000000001ffa0                p_s56_t_0
                0x000000000001ffa4                p_s56_t_1
                0x000000000001ffa8                p_s56_t_2
                0x000000000001ffac                p_s56_t_3
                0x000000000001ffb0                p_s56_t_4
                0x000000000001ffd8                p_s56_t_5
                0x0000000000020000                p_s56_t_6
                0x0000000000020028                p_s56_t_7
                0x0000000000020050                p_s56_t_8
                0x0000000000020054                p_s56_t_9
                0x000000000002007c                p_s57_t_0
                0x0000000000020080                p_s57_t_1
                0x0000000000020084                p_s57_t_2
                0x00000000000200ac                p_s57_t_3
                0x00000000000200b0                p_s57_t_4
                0x00000000000200d8                p_s57_t_5
                0x00000000000200dc                p_s57_t_6
                0x00000000000200e0                p_s57_t_7
                0x0000000000020108                p_s57_t_8
                0x0000000000020130                p_s57_t_9
                0x0000000000020158                p_s58_t_0
                0x0000000000020180                p_s58_t_1
                0x00000000000201a8                p_s58_t_2
                0x00000000000201d0                p_s58_t_3
                0x00000000000201f8                p_s58_t_4
                0x00000000000201fc                p_s58_t_5
                0x0000000000020224                p_s58_t_6
                0x0000000000020228                p_s58_t_7
                0x000000000002022c                p_s58_t_8
                0x0000000000020230                p_s58_t_9
                0x0000000000020234                p_s59_t_0
                0x0000000000020238                p_s59_t_1
                0x000000000002023c                p_s59_t_2
                0x0000000000020264                p_s59_t_3
                0x0000000000020268                p_s59_t_4
                0x0000000000020290                p_s59_t_5
                0x00000000000202b8                p_s59_t_6
                0x00000000000202e0                p_s59_t_7
                0x00000000000202e4                p_s59_t_8
                0x000000000002030c                p_s59_t_9
                0x0000000000020310                p_s60_t_0
                0x0000000000020314                p_s60_t_1
                0x000000000002033c                p_s60_t_2
                0x0000000000020364                p_s60_t_3
                0x0000000000020368                p_s60_t_4
                0x0000000000020390                p_s60_t_5
                0x0000000000020394                p_s60_t_6
                0x00000000000203bc                p_s60_t_7
                0x00000000000203c0                p_s60_t_8
                0x00000000000203e8                p_s60_t_9
                0x00000000000203ec                p_s61_t_0
                0x0000000000020414                p_s61_t_1
                0x0000000000020418                p_s61_t_2
                0x000000000002041c                p_s61_t_3
                0x0000000000020420                p_s61_t_4
                0x0000000000020448                p_s61_t_5
                0x000000000002044c                p_s61_t_6
                0x0000000000020474                p_s61_t_7
                0x000000000002049c                p_s61_t_8
                0x00000000000204c4                p_s61_t_9
                0x00000000000204c8                p_s62_t_0
                0x00000000000204f0                p_s62_t_1
                0x00000000000204f4                p_s62_t_2
                0x000000000002051c                p_s62_t_3
                0x0000000000020544                p_s62_t_4
                0x0000000000020548                p_s62_t_5
                0x000000000002054c                p_s62_t_6
                0x0000000000020550                p_s62_t_7
                0x0000000000020578                p_s62_t_8
                0x000000000002057c                p_s62_t_9
                0x00000000000205a4                p_s63_t_0
                0x00000000000205a8                p_s63_t_1
                0x00000000000205ac                p_s63_t_2
                0x00000000000205d4                p_s63_t_3
                0x00000000000205d8                p_s63_t_4
                0x0000000000020600                p_s63_t_5
                0x0000000000020628                p_s63_t_6
                0x0000000000020650                p_s63_t_7
                0x0000000000020654                p_s63_t_8
                0x0000000000020658                p_s63_t_9
                0x0000000000020680                p_s64_t_0
                0x0000000000020684                p_s64_t_1
                0x0000000000020688                p_s64_t_2
                0x00000000000206b0                p_s64_t_3
                0x00000000000206b4                p_s64_t_4
                0x00000000000206dc                p_s64_t_5
                0x0000000000020704                p_s64_t_6
                0x000000000002072c                p_s64_t_7
                0x0000000000020730                p_s64_t_8
                0x0000000000020758                p_s64_t_9
                0x000000000002075c                p_s65_t_0
                0x0000000000020760                p_s65_t_1
                0x0000000000020764                p_s65_t_2
                0x0000000000020768                p_s65_t_3
                0x0000000000020790                p_s65_t_4
                0x0000000000020794                p_s65_t_5
                0x00000000000207bc                p_s65_t_6
                0x00000000000207e4                p_s65_t_7
                0x00000000000207e8                p_s65_t_8
                0x0000000000020810                p_s65_t_9
                0x0000000000020838                p_s66_t_0
                0x0000000000020860                p_s66_t_1
                0x0000000000020888                p_s66_t_2
                0x000000000002088c                p_s66_t_3
                0x0000000000020890                p_s66_t_4
                0x0000000000020894                p_s66_t_5
                0x00000000000208bc                p_s66_t_6
                0x00000000000208e4                p_s66_t_7
                0x00000000000208e8                p_s66_t_8
                0x0000000000020910                p_s66_t_9
                0x0000000000020914                p_s67_t_0
                0x0000000000020918                p_s67_t_1
                0x0000000000020940                p_s67_t_2
                0x0000000000020944                p_s67_t_3
                0x000000000002096c                p_s67_t_4
                0x0000000000020994                p_s67_t_5
                0x0000000000020998                p_s67_t_6
                0x000000000002099c                p_s67_t_7
                0x00000000000209c4                p_s67_t_8
                0x00000000000209c8                p_s67_t_9
                0x00000000000209f0                p_s68_t_0
                0x0000000000020a18                p_s68_t_1
                0x0000000000020a40                p_s68_t_2
                0x0000000000020a44                p_s68_t_3
                0x0000000000020a6c                p_s68_t_4
                0x0000000000020a70                p_s68_t_5
                0x0000000000020a74                p_s68_t_6
                0x0000000000020a9c                p_s68_t_7
                0x0000000000020aa0                p_s68_t_8
                0x0000000000020aa4                p_s68_t_9
                0x0000000000020acc                p_s69_t_0
                0x0000000000020af4                p_s69_t_1
                0x0000000000020af8                p_s69_t_2
                0x0000000000020b20                p_s69_t_3
                0x0000000000020b24                p_s69_t_4
                0x0000000000020b4c                p_s69_t_5
                0x0000000000020b50                p_s69_t_6
                0x0000000000020b78                p_s69_t_7
                0x0000000000020b7c                p_s69_t_8
                0x0000000000020ba4                p_s69_t_9
                0x0000000000020ba8                p_s70_t_0
                0x0000000000020bac                p_s70_t_1
                0x0000000000020bb0                p_s70_t_2
                0x0000000000020bb4                p_s70_t_3
                0x0000000000020bdc                p_s70_t_4
                0x0000000000020c04                p_s70_t_5
                0x0000000000020c08                p_s70_t_6
                0x0000000000020c30                p_s70_t_7
                0x0000000000020c58                p_s70_t_8
                0x0000000000020c80                p_s70_t_9
                0x0000000000020c84                p_s71_t_0
                0x0000000000020c88                p_s71_t_1
                0x0000000000020cb0                p_s71_t_2
                0x0000000000020cd8                p_s71_t_3
                0x0000000000020cdc                p_s71_t_4
                0x0000000000020ce0                p_s71_t_5
                0x0000000000020ce4                p_s71_t_6
                0x0000000000020d0c                p_s71_t_7
                0x0000000000020d34                p_s71_t_8
                0x0000000000020d5c                p_s71_t_9
                0x0000000000020d60                p_s72_t_0
                0x0000000000020d88                p_s72_t_1
                0x0000000000020db0                p_s72_t_2
                0x0000000000020db4                p_s72_t_3
                0x0000000000020db8                p_s72_t_4
                0x0000000000020dbc                p_s72_t_5
                0x0000000000020de4                p_s72_t_6
                0x0000000000020de8                p_s72_t_7
                0x0000000000020e10                p_s72_t_8
                0x0000000000020e14                p_s72_t_9
                0x0000000000020e3c                p_s73_t_0
                0x0000000000020e40                p_s73_t_1
                0x0000000000020e44                p_s73_t_2
                0x0000000000020e48                p_s73_t_3
                0x0000000000020e4c                p_s73_t_4
                0x0000000000020e50                p_s73_t_5
                0x0000000000020e78                p_s73_t_6
                0x0000000000020ea0                p_s73_t_7
                0x0000000000020ec8                p_s73_t_8
                0x0000000000020ef0                p_s73_t_9
                0x0000000000020f18                p_s74_t_0
                0x0000000000020f1c                p_s74_t_1
                0x0000000000020f20                p_s74_t_2
                0x0000000000020f48                p_s74_t_3
                0x0000000000020f4c                p_s74_t_4
                0x0000000000020f74                p_s74_t_5
                0x0000000000020f9c                p_s74_t_6
                0x0000000000020fc4                p_s74_t_7
                0x0000000000020fc8                p_s74_t_8
                0x0000000000020fcc                p_s74_t_9
                0x0000000000020ff4                p_s75_t_0
                0x0000000000020ff8                p_s75_t_1
                0x0000000000020ffc                p_s75_t_2
                0x0000000000021000                p_s75_t_3
                0x0000000000021004                p_s75_t_4
                0x000000000002102c                p_s75_t_5
                0x0000000000021030                p_s75_t_6
                0x0000000000021058                p_s75_t_7
                0x0000000000021080                p_s75_t_8
                0x00000000000210a8                p_s75_t_9
                0x00000000000210d0                p_s76_t_0
                0x00000000000210d4                p_s76_t_1
                0x00000000000210fc                p_s76_t_2
                0x0000000000021124                p_s76_t_3
                0x000000000002114c                p_s76_t_4
                0x0000000000021150                p_s76_t_5
                0x0000000000021178                p_s76_t_6
                0x00000000000211a0                p_s76_t_7
                0x00000000000211a4                p_s76_t_8
                0x00000000000211a8                p_s76_t_9
                0x00000000000211ac                p_s77_t_0
                0x00000000000211b0                p_s77_t_1
                0x00000000000211d8                p_s77_t_2
                0x00000000000211dc                p_s77_t_3
                0x00000000000211e0                p_s77_t_4
                0x00000000000211e4                p_s77_t_5
                0x000000000002120c                p_s77_t_6
                0x0000000000021234                p_s77_t_7
                0x000000000002125c                p_s77_t_8
                0x0000000000021260                p_s77_t_9
                0x0000000000021288                p_s78_t_0
                0x000000000002128c                p_s78_t_1
                0x00000000000212b4                p_s78_t_2
                0x00000000000212dc                p_s78_t_3
                0x00000000000212e0                p_s78_t_4
                0x0000000000021308                p_s78_t_5
                0x000000000002130c                p_s78_t_6
                0x0000000000021310                p_s78_t_7
                0x0000000000021338                p_s78_t_8
                0x0000000000021360                p_s78_t_9
                0x0000000000021364                p_s79_t_0
                0x0000000000021368                p_s79_t_1
                0x000000000002136c                p_s79_t_2
                0x0000000000021394                p_s79_t_3
                0x0000000000021398                p_s79_t_4
                0x00000000000213c0                p_s79_t_5
                0x00000000000213e8                p_s79_t_6
                0x0000000000021410                p_s79_t_7
                0x0000000000021414                p_s79_t_8
                0x0000000000021418                p_s79_t_9
                0x0000000000021440                p_s80_t_0
                0x0000000000021468                p_s80_t_1
                0x000000000002146c                p_s80_t_2
                0x0000000000021494                p_s80_t_3
                0x0000000000021498                p_s80_t_4
                0x00000000000214c0                p_s80_t_5
                0x00000000000214e8                p_s80_t_6
                0x00000000000214ec                p_s80_t_7
                0x00000000000214f0                p_s80_t_8
                0x00000000000214f4                p_s80_t_9
                0x000000000002151c                p_s81_t_0
                0x0000000000021520                p_s81_t_1
                0x0000000000021548                p_s81_t_2
                0x0000000000021570                p_s81_t_3
                0x0000000000021574                p_s81_t_4
                0x000000000002159c                p_s81_t_5
                0x00000000000215a0                p_s81_t_6
                0x00000000000215c8                p_s81_t_7
                0x00000000000215cc                p_s81_t_8
                0x00000000000215d0                p_s81_t_9
                0x00000000000215f8                p_s82_t_0
                0x00000000000215fc                p_s82_t_1
                0x0000000000021624                p_s82_t_2
                0x000000000002164c                p_s82_t_3
                0x0000000000021650                p_s82_t_4
                0x0000000000021654                p_s82_t_5
                0x0000000000021658                p_s82_t_6
                0x0000000000021680                p_s82_t_7
                0x00000000000216a8                p_s82_t_8
                0x00000000000216d0                p_s82_t_9
                0x00000000000216d4                p_s83_t_0
                0x00000000000216fc                p_s83_t_1
                0x0000000000021700                p_s83_t_2
                0x0000000000021728                p_s83_t_3
                0x000000000002172c                p_s83_t_4
                0x0000000000021730                p_s83_t_5
                0x0000000000021734                p_s83_t_6
                0x000000000002175c                p_s83_t_7
                0x0000000000021784                p_s83_t_8
                0x0000000000021788                p_s83_t_9
                0x00000000000217b0                p_s84_t_0
                0x00000000000217d8                p_s84_t_1
                0x0000000000021800                p_s84_t_2
                0x0000000000021828                p_s84_t_3
                0x000000000002182c                p_s84_t_4
                0x0000000000021830                p_s84_t_5
                0x0000000000021834                p_s84_t_6
                0x0000000000021838                p_s84_t_7
                0x000000000002183c                p_s84_t_8
                0x0000000000021864                p_s84_t_9
                0x000000000002188c                p_s85_t_0
                0x00000000000218b4                p_s85_t_1
                0x00000000000218dc                p_s85_t_2
                0x00000000000218e0                p_s85_t_3
                0x00000000000218e4                p_s85_t_4
                0x000000000002190c                p_s85_t_5
                0x0000000000021934                p_s85_t_6
                0x0000000000021938                p_s85_t_7
                0x0000000000021960                p_s85_t_8
                0x0000000000021964                p_s85_t_9
                0x0000000000021968                p_s86_t_0
                0x000000000002196c                p_s86_t_1
                0x0000000000021994                p_s86_t_2
                0x0000000000021998                p_s86_t_3
                0x000000000002199c                p_s86_t_4
                0x00000000000219c4                p_s86_t_5
                0x00000000000219ec                p_s86_t_6
                0x0000000000021a14                p_s86_t_7
                0x0000000000021a3c                p_s86_t_8
                0x0000000000021a40                p_s86_t_9
                0x0000000000021a44                p_s87_t_0
                0x0000000000021a6c                p_s87_t_1
                0x0000000000021a70                p_s87_t_2
                0x0000000000021a98                p_s87_t_3
                0x0000000000021a9c                p_s87_t_4
                0x0000000000021aa0                p_s87_t_5
                0x0000000000021aa4                p_s87_t_6
                0x0000000000021aa8                p_s87_t_7
                0x0000000000021ad0                p_s87_t_8
                0x0000000000021af8                p_s87_t_9
                0x0000000000021b20                p_s88_t_0
                0x0000000000021b24                p_s88_t_1
                0x0000000000021b4c                p_s88_t_2
                0x0000000000021b74                p_s88_t_3
                0x0000000000021b78                p_s88_t_4
                0x0000000000021ba0                p_s88_t_5
                0x0000000000021bc8                p_s88_t_6
                0x0000000000021bcc                p_s88_t_7
                0x0000000000021bd0                p_s88_t_8
                0x0000000000021bd4                p_s88_t_9
                0x0000000000021bfc                p_s89_t_0
                0x0000000000021c00                p_s89_t_1
                0x0000000000021c28                p_s89_t_2
                0x0000000000021c50                p_s89_t_3
                0x0000000000021c54                p_s89_t_4
                0x0000000000021c7c                p_s89_t_5
                0x0000000000021c80                p_s89_t_6
                0x0000000000021c84                p_s89_t_7
                0x0000000000021cac                p_s89_t_8
                0x0000000000021cb0                p_s89_t_9
                0x0000000000021cd8                p_s90_t_0
                0x0000000000021cdc                p_s90_t_1
                0x0000000000021d04                p_s90_t_2
                0x0000000000021d08                p_s90_t_3
                0x0000000000021d0c                p_s90_t_4
                0x0000000000021d34                p_s90_t_5
                0x0000000000021d38                p_s90_t_6
                0x0000000000021d60                p_s90_t_7
                0x0000000000021d64                p_s90_t_8
                0x0000000000021d8c                p_s90_t_9
                0x0000000000021db4                p_s91_t_0
                0x0000000000021db8                p_s91_t_1
                0x0000000000021de0                p_s91_t_2
                0x0000000000021e08                p_s91_t_3
                0x0000000000021e30                p_s91_t_4
                0x0000000000021e34                p_s91_t_5
                0x0000000000021e38                p_s91_t_6
                0x0000000000021e3c                p_s91_t_7
                0x0000000000021e40                p_s91_t_8
                0x0000000000021e68                p_s91_t_9
                0x0000000000021e90                p_s92_t_0
                0x0000000000021eb8                p_s92_t_1
                0x0000000000021ebc                p_s92_t_2
                0x0000000000021ee4                p_s92_t_3
                0x0000000000021f0c                p_s92_t_4
                0x0000000000021f10                p_s92_t_5
                0x0000000000021f38                p_s92_t_6
                0x0000000000021f3c                p_s92_t_7
                0x0000000000021f64                p_s92_t_8
                0x0000000000021f68                p_s92_t_9
                0x0000000000021f6c                p_s93_t_0
                0x0000000000021f94                p_s93_t_1
                0x0000000000021fbc                p_s93_t_2
                0x0000000000021fe4                p_s93_t_3
                0x0000000000021fe8                p_s93_t_4
                0x0000000000021fec                p_s93_t_5
                0x0000000000022014                p_s93_t_6
                0x000000000002203c                p_s93_t_7
                0x0000000000022040                p_s93_t_8
                0x0000000000022044                p_s93_t_9
                0x0000000000022048                p_s94_t_0
                0x000000000002204c                p_s94_t_1
                0x0000000000022074                p_s94_t_2
                0x000000000002209c                p_s94_t_3
                0x00000000000220a0                p_s94_t_4
                0x00000000000220c8                p_s94_t_5
                0x00000000000220f0                p_s94_t_6
                0x00000000000220f4                p_s94_t_7
                0x00000000000220f8                p_s94_t_8
                0x00000000000220fc                p_s94_t_9
                0x0000000000022124                p_s95_t_0
                0x000000000002214c                p_s95_t_1
                0x0000000000022150                p_s95_t_2
                0x0000000000022154                p_s95_t_3
                0x0000000000022158                p_s95_t_4
                0x0000000000022180                p_s95_t_5
                0x0000000000022184                p_s95_t_6
                0x00000000000221ac                p_s95_t_7
                0x00000000000221b0                p_s95_t_8
                0x00000000000221d8                p_s95_t_9
                0x0000000000022200                p_s96_t_0
                0x0000000000022204                p_s96_t_1
                0x0000000000022208                p_s96_t_2
                0x000000000002220c                p_s96_t_3
                0x0000000000022234                p_s96_t_4
                0x000000000002225c                p_s96_t_5
                0x0000000000022284                p_s96_t_6
                0x00000000000222ac                p_s96_t_7
                0x00000000000222d4                p_s96_t_8
                0x00000000000222d8                p_s96_t_9
                0x00000000000222dc                p_s97_t_0
                0x00000000000222e0                p_s97_t_1
                0x0000000000022308                p_s97_t_2
                0x000000000002230c                p_s97_t_3
                0x0000000000022310                p_s97_t_4
                0x0000000000022338                p_s97_t_5
                0x0000000000022360                p_s97_t_6
                0x0000000000022388                p_s97_t_7
                0x000000000002238c                p_s97_t_8
                0x0000000000022390                p_s97_t_9
                0x00000000000223b8                p_s98_t_0
                0x00000000000223e0                p_s98_t_1
                0x0000000000022408                p_s98_t_2
                0x000000000002240c                p_s98_t_3
                0x0000000000022410                p_s98_t_4
                0x0000000000022414                p_s98_t_5
                0x000000000002243c                p_s98_t_6
                0x0000000000022440                p_s98_t_7
                0x0000000000022444                p_s98_t_8
                0x000000000002246c                p_s98_t_9
                0x0000000000022494                p_s99_t_0
                0x0000000000022498                p_s99_t_1
                0x00000000000224c0                p_s99_t_2
                0x00000000000224c4                p_s99_t_3
                0x00000000000224c8                p_s99_t_4
                0x00000000000224cc                p_s99_t_5
                0x00000000000224d0                p_s99_t_6
                0x00000000000224f8                p_s99_t_7
                0x0000000000022520                p_s99_t_8
                0x0000000000022548                p_s99_t_9
                0x0000000000022570                d_s0_t_0
                0x0000000000022598                d_s0_t_1
                0x00000000000225c0                d_s0_t_2
                0x00000000000225c4                d_s0_t_3
                0x00000000000225c8                d_s0_t_4
                0x00000000000225cc                d_s0_t_5
                0x00000000000225f4                d_s0_t_6
                0x00000000000225f8                d_s0_t_7
                0x0000000000022620                d_s0_t_8
                0x0000000000022648                d_s0_t_9
                0x000000000002264c                d_s1_t_0
                0x0000000000022674                d_s1_t_1
                0x0000000000022678                d_s1_t_2
                0x00000000000226a0                d_s1_t_3
                0x00000000000226a4                d_s1_t_4
                0x00000000000226a8                d_s1_t_5
                0x00000000000226ac                d_s1_t_6
                0x00000000000226d4                d_s1_t_7
                0x00000000000226d8                d_s1_t_8
                0x0000000000022700                d_s1_t_9
                0x0000000000022728                d_s2_t_0
                0x0000000000022750                d_s2_t_1
                0x0000000000022754                d_s2_t_2
                0x0000000000022758                d_s2_t_3
                0x0000000000022780                d_s2_t_4
                0x0000000000022784                d_s2_t_5
                0x00000000000227ac                d_s2_t_6
                0x00000000000227d4                d_s2_t_7
                0x00000000000227d8                d_s2_t_8
                0x00000000000227dc                d_s2_t_9
                0x0000000000022804                d_s3_t_0
                0x0000000000022808                d_s3_t_1
                0x0000000000022830                d_s3_t_2
                0x0000000000022858                d_s3_t_3
                0x000000000002285c                d_s3_t_4
                0x0000000000022884                d_s3_t_5
                0x0000000000022888                d_s3_t_6
                0x00000000000228b0                d_s3_t_7
                0x00000000000228b4                d_s3_t_8
                0x00000000000228b8                d_s3_t_9
                0x00000000000228e0                d_s4_t_0
                0x0000000000022908                d_s4_t_1
                0x000000000002290c                d_s4_t_2
                0x0000000000022910                d_s4_t_3
                0x0000000000022914                d_s4_t_4
                0x000000000002293c                d_s4_t_5
                0x0000000000022964                d_s4_t_6
                0x000000000002298c                d_s4_t_7
                0x00000000000229b4                d_s4_t_8
                0x00000000000229b8                d_s4_t_9
                0x00000000000229bc                d_s5_t_0
                0x00000000000229e4                d_s5_t_1
                0x00000000000229e8                d_s5_t_2
                0x00000000000229ec                d_s5_t_3
                0x0000000000022a14                d_s5_t_4
                0x0000000000022a3c                d_s5_t_5
                0x0000000000022a64                d_s5_t_6
                0x0000000000022a8c                d_s5_t_7
                0x0000000000022a90                d_s5_t_8
                0x0000000000022a94                d_s5_t_9
                0x0000000000022a98                d_s6_t_0
                0x0000000000022a9c                d_s6_t_1
                0x0000000000022aa0                d_s6_t_2
                0x0000000000022aa4                d_s6_t_3
                0x0000000000022acc                d_s6_t_4
                0x0000000000022af4                d_s6_t_5
                0x0000000000022af8                d_s6_t_6
                0x0000000000022b20                d_s6_t_7
                0x0000000000022b48                d_s6_t_8
                0x0000000000022b70                d_s6_t_9
                0x0000000000022b74                d_s7_t_0
                0x0000000000022b9c                d_s7_t_1
                0x0000000000022ba0                d_s7_t_2
                0x0000000000022bc8                d_s7_t_3
                0x0000000000022bcc                d_s7_t_4
                0x0000000000022bd0                d_s7_t_5
                0x0000000000022bf8                d_s7_t_6
                0x0000000000022bfc                d_s7_t_7
                0x0000000000022c00                d_s7_t_8
                0x0000000000022c28                d_s7_t_9
                0x0000000000022c50                d_s8_t_0
                0x0000000000022c78                d_s8_t_1
                0x0000000000022c7c                d_s8_t_2
                0x0000000000022c80                d_s8_t_3
                0x0000000000022ca8                d_s8_t_4
                0x0000000000022cd0                d_s8_t_5
                0x0000000000022cd4                d_s8_t_6
                0x0000000000022cd8                d_s8_t_7
                0x0000000000022d00                d_s8_t_8
                0x0000000000022d04                d_s8_t_9
                0x0000000000022d2c                d_s9_t_0
                0x0000000000022d54                d_s9_t_1
                0x0000000000022d58                d_s9_t_2
                0x0000000000022d80                d_s9_t_3
                0x0000000000022da8                d_s9_t_4
                0x0000000000022dac                d_s9_t_5
                0x0000000000022db0                d_s9_t_6
                0x0000000000022db4                d_s9_t_7
                0x0000000000022ddc                d_s9_t_8
                0x0000000000022de0                d_s9_t_9
                0x0000000000022e08                d_s10_t_0
                0x0000000000022e30                d_s10_t_1
                0x0000000000022e58                d_s10_t_2
                0x0000000000022e80                d_s10_t_3
                0x0000000000022e84                d_s10_t_4
                0x0000000000022e88                d_s10_t_5
                0x0000000000022eb0                d_s10_t_6
                0x0000000000022eb4                d_s10_t_7
                0x0000000000022eb8                d_s10_t_8
                0x0000000000022ebc                d_s10_t_9
                0x0000000000022ee4                d_s11_t_0
                0x0000000000022ee8                d_s11_t_1
                0x0000000000022f10                d_s11_t_2
                0x0000000000022f14                d_s11_t_3
                0x0000000000022f18                d_s11_t_4
                0x0000000000022f1c                d_s11_t_5
                0x0000000000022f44                d_s11_t_6
                0x0000000000022f6c                d_s11_t_7
                0x0000000000022f70                d_s11_t_8
                0x0000000000022f98                d_s11_t_9
                0x0000000000022fc0                d_s12_t_0
                0x0000000000022fc4                d_s12_t_1
                0x0000000000022fc8                d_s12_t_2
                0x0000000000022ff0                d_s12_t_3
                0x0000000000023018                d_s12_t_4
                0x0000000000023040                d_s12_t_5
                0x0000000000023068                d_s12_t_6
                0x000000000002306c                d_s12_t_7
                0x0000000000023094                d_s12_t_8
                0x0000000000023098                d_s12_t_9
                0x000000000002309c                d_s13_t_0
                0x00000000000230c4                d_s13_t_1
                0x00000000000230c8                d_s13_t_2
                0x00000000000230cc                d_s13_t_3
                0x00000000000230f4                d_s13_t_4
                0x000000000002311c                d_s13_t_5
                0x0000000000023144                d_s13_t_6
                0x0000000000023148                d_s13_t_7
                0x0000000000023170                d_s13_t_8
                0x0000000000023174                d_s13_t_9
                0x0000000000023178                d_s14_t_0
                0x000000000002317c                d_s14_t_1
                0x0000000000023180                d_s14_t_2
                0x00000000000231a8                d_s14_t_3
                0x00000000000231d0                d_s14_t_4
                0x00000000000231d4                d_s14_t_5
                0x00000000000231d8                d_s14_t_6
                0x0000000000023200                d_s14_t_7
                0x0000000000023228                d_s14_t_8
                0x0000000000023250                d_s14_t_9
                0x0000000000023254                d_s15_t_0
                0x0000000000023258                d_s15_t_1
                0x000000000002325c                d_s15_t_2
                0x0000000000023284                d_s15_t_3
                0x00000000000232ac                d_s15_t_4
                0x00000000000232b0                d_s15_t_5
                0x00000000000232b4                d_s15_t_6
                0x00000000000232dc                d_s15_t_7
                0x00000000000232e0                d_s15_t_8
                0x0000000000023308                d_s15_t_9
                0x0000000000023330                d_s16_t_0
                0x0000000000023334                d_s16_t_1
                0x0000000000023338                d_s16_t_2
                0x0000000000023360                d_s16_t_3
                0x0000000000023388                d_s16_t_4
                0x00000000000233b0                d_s16_t_5
                0x00000000000233b4                d_s16_t_6
                0x00000000000233b8                d_s16_t_7
                0x00000000000233e0                d_s16_t_8
                0x0000000000023408                d_s16_t_9
                0x000000000002340c                d_s17_t_0
                0x0000000000023410                d_s17_t_1
                0x0000000000023438                d_s17_t_2
                0x0000000000023460                d_s17_t_3
                0x0000000000023464                d_s17_t_4
                0x000000000002348c                d_s17_t_5
                0x00000000000234b4                d_s17_t_6
                0x00000000000234dc                d_s17_t_7
                0x00000000000234e0                d_s17_t_8
                0x00000000000234e4                d_s17_t_9
                0x00000000000234e8                d_s18_t_0
                0x00000000000234ec                d_s18_t_1
                0x0000000000023514                d_s18_t_2
                0x0000000000023518                d_s18_t_3
                0x0000000000023540                d_s18_t_4
                0x0000000000023544                d_s18_t_5
                0x000000000002356c                d_s18_t_6
                0x0000000000023594                d_s18_t_7
                0x0000000000023598                d_s18_t_8
                0x000000000002359c                d_s18_t_9
                0x00000000000235c4                d_s19_t_0
                0x00000000000235ec                d_s19_t_1
                0x0000000000023614                d_s19_t_2
                0x000000000002363c                d_s19_t_3
                0x0000000000023640                d_s19_t_4
                0x0000000000023668                d_s19_t_5
                0x000000000002366c                d_s19_t_6
                0x0000000000023670                d_s19_t_7
                0x0000000000023698                d_s19_t_8
                0x000000000002369c                d_s19_t_9
                0x00000000000236a0                d_s20_t_0
                0x00000000000236a4                d_s20_t_1
                0x00000000000236a8                d_s20_t_2
                0x00000000000236d0                d_s20_t_3
                0x00000000000236d4                d_s20_t_4
                0x00000000000236fc                d_s20_t_5
                0x0000000000023724                d_s20_t_6
                0x000000000002374c                d_s20_t_7
                0x0000000000023750                d_s20_t_8
                0x0000000000023754                d_s20_t_9
                0x000000000002377c                d_s21_t_0
                0x00000000000237a4                d_s21_t_1
                0x00000000000237cc                d_s21_t_2
                0x00000000000237d0                d_s21_t_3
                0x00000000000237d4                d_s21_t_4
                0x00000000000237d8                d_s21_t_5
                0x0000000000023800                d_s21_t_6
                0x0000000000023804                d_s21_t_7
                0x000000000002382c                d_s21_t_8
                0x0000000000023854                d_s21_t_9
                0x0000000000023858                d_s22_t_0
                0x000000000002385c                d_s22_t_1
                0x0000000000023860                d_s22_t_2
                0x0000000000023888                d_s22_t_3
                0x000000000002388c                d_s22_t_4
                0x0000000000023890                d_s22_t_5
                0x00000000000238b8                d_s22_t_6
                0x00000000000238e0                d_s22_t_7
                0x00000000000238e4                d_s22_t_8
                0x000000000002390c                d_s22_t_9
                0x0000000000023934                d_s23_t_0
                0x0000000000023938                d_s23_t_1
                0x0000000000023960                d_s23_t_2
                0x0000000000023964                d_s23_t_3
                0x000000000002398c                d_s23_t_4
                0x00000000000239b4                d_s23_t_5
                0x00000000000239b8                d_s23_t_6
                0x00000000000239bc                d_s23_t_7
                0x00000000000239e4                d_s23_t_8
                0x0000000000023a0c                d_s23_t_9
                0x0000000000023a10                d_s24_t_0
                0x0000000000023a14                d_s24_t_1
                0x0000000000023a3c                d_s24_t_2
                0x0000000000023a64                d_s24_t_3
                0x0000000000023a68                d_s24_t_4
                0x0000000000023a90                d_s24_t_5
                0x0000000000023a94                d_s24_t_6
                0x0000000000023abc                d_s24_t_7
                0x0000000000023ac0                d_s24_t_8
                0x0000000000023ac4                d_s24_t_9
                0x0000000000023aec                d_s25_t_0
                0x0000000000023af0                d_s25_t_1
                0x0000000000023b18                d_s25_t_2
                0x0000000000023b40                d_s25_t_3
                0x0000000000023b44                d_s25_t_4
                0x0000000000023b48                d_s25_t_5
                0x0000000000023b4c                d_s25_t_6
                0x0000000000023b74                d_s25_t_7
                0x0000000000023b78                d_s25_t_8
                0x0000000000023ba0                d_s25_t_9
                0x0000000000023bc8                d_s26_t_0
                0x0000000000023bcc                d_s26_t_1
                0x0000000000023bd0                d_s26_t_2
                0x0000000000023bf8                d_s26_t_3
                0x0000000000023bfc                d_s26_t_4
                0x0000000000023c24                d_s26_t_5
                0x0000000000023c4c                d_s26_t_6
                0x0000000000023c50                d_s26_t_7
                0x0000000000023c54                d_s26_t_8
                0x0000000000023c7c                d_s26_t_9
                0x0000000000023ca4                d_s27_t_0
                0x0000000000023ccc                d_s27_t_1
                0x0000000000023cd0                d_s27_t_2
                0x0000000000023cf8                d_s27_t_3
                0x0000000000023d20                d_s27_t_4
                0x0000000000023d24                d_s27_t_5
                0x0000000000023d28                d_s27_t_6
                0x0000000000023d2c                d_s27_t_7
                0x0000000000023d54                d_s27_t_8
                0x0000000000023d7c                d_s27_t_9
                0x0000000000023d80                d_s28_t_0
                0x0000000000023da8                d_s28_t_1
                0x0000000000023dac                d_s28_t_2
                0x0000000000023dd4                d_s28_t_3
                0x0000000000023dd8                d_s28_t_4
                0x0000000000023e00                d_s28_t_5
                0x0000000000023e04                d_s28_t_6
                0x0000000000023e08                d_s28_t_7
                0x0000000000023e0c                d_s28_t_8
                0x0000000000023e34                d_s28_t_9
                0x0000000000023e5c                d_s29_t_0
                0x0000000000023e84                d_s29_t_1
                0x0000000000023e88                d_s29_t_2
                0x0000000000023eb0                d_s29_t_3
                0x0000000000023ed8                d_s29_t_4
                0x0000000000023edc                d_s29_t_5
                0x0000000000023f04                d_s29_t_6
                0x0000000000023f08                d_s29_t_7
                0x0000000000023f30                d_s29_t_8
                0x0000000000023f34                d_s29_t_9
                0x0000000000023f38                d_s30_t_0
                0x0000000000023f3c                d_s30_t_1
                0x0000000000023f64                d_s30_t_2
                0x0000000000023f8c                d_s30_t_3
                0x0000000000023fb4                d_s30_t_4
                0x0000000000023fb8                d_s30_t_5
                0x0000000000023fe0                d_s30_t_6
                0x0000000000023fe4                d_s30_t_7
                0x0000000000023fe8                d_s30_t_8
                0x0000000000023fec                d_s30_t_9
                0x0000000000024014                d_s31_t_0
                0x000000000002403c                d_s31_t_1
                0x0000000000024040                d_s31_t_2
                0x0000000000024068                d_s31_t_3
                0x0000000000024090                d_s31_t_4
                0x0000000000024094                d_s31_t_5
                0x0000000000024098                d_s31_t_6
                0x00000000000240c0                d_s31_t_7
                0x00000000000240c4                d_s31_t_8
                0x00000000000240c8                d_s31_t_9
                0x00000000000240f0                d_s32_t_0
                0x0000000000024118                d_s32_t_1
                0x0000000000024140                d_s32_t_2
                0x0000000000024144                d_s32_t_3
                0x000000000002416c                d_s32_t_4
                0x0000000000024170                d_s32_t_5
                0x0000000000024174                d_s32_t_6
                0x000000000002419c                d_s32_t_7
                0x00000000000241a0                d_s32_t_8
                0x00000000000241a4                d_s32_t_9
                0x00000000000241cc                d_s33_t_0
                0x00000000000241f4                d_s33_t_1
                0x00000000000241f8                d_s33_t_2
                0x00000000000241fc                d_s33_t_3
                0x0000000000024200                d_s33_t_4
                0x0000000000024228                d_s33_t_5
                0x0000000000024250                d_s33_t_6
                0x0000000000024254                d_s33_t_7
                0x0000000000024258                d_s33_t_8
                0x0000000000024280                d_s33_t_9
                0x00000000000242a8                d_s34_t_0
                0x00000000000242ac                d_s34_t_1
                0x00000000000242d4                d_s34_t_2
                0x00000000000242d8                d_s34_t_3
                0x00000000000242dc                d_s34_t_4
                0x0000000000024304                d_s34_t_5
                0x000000000002432c                d_s34_t_6
                0x0000000000024354                d_s34_t_7
                0x000000000002437c                d_s34_t_8
                0x0000000000024380                d_s34_t_9
                0x0000000000024384                d_s35_t_0
                0x0000000000024388                d_s35_t_1
                0x00000000000243b0                d_s35_t_2
                0x00000000000243b4                d_s35_t_3
                0x00000000000243dc                d_s35_t_4
                0x00000000000243e0                d_s35_t_5
                0x0000000000024408                d_s35_t_6
                0x0000000000024430                d_s35_t_7
                0x0000000000024458                d_s35_t_8
                0x000000000002445c                d_s35_t_9
                0x0000000000024460                d_s36_t_0
                0x0000000000024464                d_s36_t_1
                0x0000000000024468                d_s36_t_2
                0x000000000002446c                d_s36_t_3
                0x0000000000024470                d_s36_t_4
                0x0000000000024498                d_s36_t_5
                0x00000000000244c0                d_s36_t_6
                0x00000000000244e8                d_s36_t_7
                0x0000000000024510                d_s36_t_8
                0x0000000000024538                d_s36_t_9
                0x000000000002453c                d_s37_t_0
                0x0000000000024540                d_s37_t_1
                0x0000000000024568                d_s37_t_2
                0x000000000002456c                d_s37_t_3
                0x0000000000024594                d_s37_t_4
                0x0000000000024598                d_s37_t_5
                0x000000000002459c                d_s37_t_6
                0x00000000000245c4                d_s37_t_7
                0x00000000000245ec                d_s37_t_8
                0x0000000000024614                d_s37_t_9
                0x0000000000024618                d_s38_t_0
                0x0000000000024640                d_s38_t_1
                0x0000000000024668                d_s38_t_2
                0x000000000002466c                d_s38_t_3
                0x0000000000024694                d_s38_t_4
                0x00000000000246bc                d_s38_t_5
                0x00000000000246c0                d_s38_t_6
                0x00000000000246e8                d_s38_t_7
                0x00000000000246ec                d_s38_t_8
                0x00000000000246f0                d_s38_t_9
                0x00000000000246f4                d_s39_t_0
                0x00000000000246f8                d_s39_t_1
                0x0000000000024720                d_s39_t_2
                0x0000000000024748                d_s39_t_3
                0x0000000000024770                d_s39_t_4
                0x0000000000024774                d_s39_t_5
                0x0000000000024778                d_s39_t_6
                0x000000000002477c                d_s39_t_7
                0x00000000000247a4                d_s39_t_8
                0x00000000000247cc                d_s39_t_9
                0x00000000000247d0                d_s40_t_0
                0x00000000000247d4                d_s40_t_1
                0x00000000000247d8                d_s40_t_2
                0x00000000000247dc                d_s40_t_3
                0x0000000000024804                d_s40_t_4
                0x0000000000024808                d_s40_t_5
                0x0000000000024830                d_s40_t_6
                0x0000000000024858                d_s40_t_7
                0x000000000002485c                d_s40_t_8
                0x0000000000024884                d_s40_t_9
                0x00000000000248ac                d_s41_t_0
                0x00000000000248b0                d_s41_t_1
                0x00000000000248b4                d_s41_t_2
                0x00000000000248dc                d_s41_t_3
                0x0000000000024904                d_s41_t_4
                0x000000000002492c                d_s41_t_5
                0x0000000000024930                d_s41_t_6
                0x0000000000024934                d_s41_t_7
                0x000000000002495c                d_s41_t_8
                0x0000000000024960                d_s41_t_9
                0x0000000000024988                d_s42_t_0
                0x000000000002498c                d_s42_t_1
                0x00000000000249b4                d_s42_t_2
                0x00000000000249b8                d_s42_t_3
                0x00000000000249e0                d_s42_t_4
                0x00000000000249e4                d_s42_t_5
                0x0000000000024a0c                d_s42_t_6
                0x0000000000024a34                d_s42_t_7
                0x0000000000024a38                d_s42_t_8
                0x0000000000024a3c                d_s42_t_9
                0x0000000000024a64                d_s43_t_0
                0x0000000000024a68                d_s43_t_1
                0x0000000000024a90                d_s43_t_2
                0x0000000000024a94                d_s43_t_3
                0x0000000000024a98                d_s43_t_4
                0x0000000000024ac0                d_s43_t_5
                0x0000000000024ac4                d_s43_t_6
                0x0000000000024aec                d_s43_t_7
                0x0000000000024b14                d_s43_t_8
                0x0000000000024b3c                d_s43_t_9
                0x0000000000024b40                d_s44_t_0
                0x0000000000024b44                d_s44_t_1
                0x0000000000024b48                d_s44_t_2
                0x0000000000024b70                d_s44_t_3
                0x0000000000024b74                d_s44_t_4
                0x0000000000024b9c                d_s44_t_5
                0x0000000000024bc4                d_s44_t_6
                0x0000000000024bc8                d_s44_t_7
                0x0000000000024bf0                d_s44_t_8
                0x0000000000024bf4                d_s44_t_9
                0x0000000000024c1c                d_s45_t_0
                0x0000000000024c44                d_s45_t_1
                0x0000000000024c6c                d_s45_t_2
                0x0000000000024c70                d_s45_t_3
                0x0000000000024c74                d_s45_t_4
                0x0000000000024c78                d_s45_t_5
                0x0000000000024ca0                d_s45_t_6
                0x0000000000024ca4                d_s45_t_7
                0x0000000000024ccc                d_s45_t_8
                0x0000000000024cd0                d_s45_t_9
                0x0000000000024cf8                d_s46_t_0
                0x0000000000024cfc                d_s46_t_1
                0x0000000000024d24                d_s46_t_2
                0x0000000000024d28                d_s46_t_3
                0x0000000000024d50                d_s46_t_4
                0x0000000000024d78                d_s46_t_5
                0x0000000000024da0                d_s46_t_6
                0x0000000000024da4                d_s46_t_7
                0x0000000000024da8                d_s46_t_8
                0x0000000000024dd0                d_s46_t_9
                0x0000000000024dd4                d_s47_t_0
                0x0000000000024dd8                d_s47_t_1
                0x0000000000024ddc                d_s47_t_2
                0x0000000000024e04                d_s47_t_3
                0x0000000000024e08                d_s47_t_4
                0x0000000000024e30                d_s47_t_5
                0x0000000000024e58                d_s47_t_6
                0x0000000000024e5c                d_s47_t_7
                0x0000000000024e84                d_s47_t_8
                0x0000000000024e88                d_s47_t_9
                0x0000000000024eb0                d_s48_t_0
                0x0000000000024eb4                d_s48_t_1
                0x0000000000024eb8                d_s48_t_2
                0x0000000000024ee0                d_s48_t_3
                0x0000000000024f08                d_s48_t_4
                0x0000000000024f30                d_s48_t_5
                0x0000000000024f34                d_s48_t_6
                0x0000000000024f5c                d_s48_t_7
                0x0000000000024f60                d_s48_t_8
                0x0000000000024f64                d_s48_t_9
                0x0000000000024f8c                d_s49_t_0
                0x0000000000024fb4                d_s49_t_1
                0x0000000000024fb8                d_s49_t_2
                0x0000000000024fbc                d_s49_t_3
                0x0000000000024fe4                d_s49_t_4
                0x0000000000024fe8                d_s49_t_5
                0x0000000000025010                d_s49_t_6
                0x0000000000025014                d_s49_t_7
                0x000000000002503c                d_s49_t_8
                0x0000000000025040                d_s49_t_9
                0x0000000000025068                d_s50_t_0
                0x0000000000025090                d_s50_t_1
                0x00000000000250b8                d_s50_t_2
                0x00000000000250e0                d_s50_t_3
                0x00000000000250e4                d_s50_t_4
                0x00000000000250e8                d_s50_t_5
                0x00000000000250ec                d_s50_t_6
                0x00000000000250f0                d_s50_t_7
                0x0000000000025118                d_s50_t_8
                0x000000000002511c                d_s50_t_9
                0x0000000000025144                d_s51_t_0
                0x0000000000025148                d_s51_t_1
                0x000000000002514c                d_s51_t_2
                0x0000000000025174                d_s51_t_3
                0x0000000000025178                d_s51_t_4
                0x00000000000251a0                d_s51_t_5
                0x00000000000251c8                d_s51_t_6
                0x00000000000251f0                d_s51_t_7
                0x00000000000251f4                d_s51_t_8
                0x00000000000251f8                d_s51_t_9
                0x0000000000025220                d_s52_t_0
                0x0000000000025248                d_s52_t_1
                0x0000000000025270                d_s52_t_2
                0x0000000000025274                d_s52_t_3
                0x000000000002529c                d_s52_t_4
                0x00000000000252c4                d_s52_t_5
                0x00000000000252c8                d_s52_t_6
                0x00000000000252cc                d_s52_t_7
                0x00000000000252d0                d_s52_t_8
                0x00000000000252d4                d_s52_t_9
                0x00000000000252fc                d_s53_t_0
                0x0000000000025300                d_s53_t_1
                0x0000000000025304                d_s53_t_2
                0x000000000002532c                d_s53_t_3
                0x0000000000025330                d_s53_t_4
                0x0000000000025334                d_s53_t_5
                0x000000000002535c                d_s53_t_6
                0x0000000000025384                d_s53_t_7
                0x00000000000253ac                d_s53_t_8
                0x00000000000253b0                d_s53_t_9
                0x00000000000253d8                d_s54_t_0
                0x0000000000025400                d_s54_t_1
                0x0000000000025428                d_s54_t_2
                0x000000000002542c                d_s54_t_3
                0x0000000000025430                d_s54_t_4
                0x0000000000025434                d_s54_t_5
                0x000000000002545c                d_s54_t_6
                0x0000000000025460                d_s54_t_7
                0x0000000000025488                d_s54_t_8
                0x00000000000254b0                d_s54_t_9
                0x00000000000254b4                d_s55_t_0
                0x00000000000254b8                d_s55_t_1
                0x00000000000254bc                d_s55_t_2
                0x00000000000254e4                d_s55_t_3
                0x00000000000254e8                d_s55_t_4
                0x0000000000025510                d_s55_t_5
                0x0000000000025538                d_s55_t_6
                0x0000000000025560                d_s55_t_7
                0x0000000000025588                d_s55_t_8
                0x000000000002558c                d_s55_t_9
                0x0000000000025590                d_s56_t_0
                0x0000000000025594                d_s56_t_1
                0x0000000000025598                d_s56_t_2
                0x000000000002559c                d_s56_t_3
                0x00000000000255a0                d_s56_t_4
                0x00000000000255c8                d_s56_t_5
                0x00000000000255f0                d_s56_t_6
                0x0000000000025618                d_s56_t_7
                0x0000000000025640                d_s56_t_8
                0x0000000000025644                d_s56_t_9
                0x000000000002566c                d_s57_t_0
                0x0000000000025670                d_s57_t_1
                0x0000000000025674                d_s57_t_2
                0x000000000002569c                d_s57_t_3
                0x00000000000256a0                d_s57_t_4
                0x00000000000256c8                d_s57_t_5
                0x00000000000256cc                d_s57_t_6
                0x00000000000256d0                d_s57_t_7
                0x00000000000256f8                d_s57_t_8
                0x0000000000025720                d_s57_t_9
                0x0000000000025748                d_s58_t_0
                0x0000000000025770                d_s58_t_1
                0x0000000000025798                d_s58_t_2
                0x00000000000257c0                d_s58_t_3
                0x00000000000257e8                d_s58_t_4
                0x00000000000257ec                d_s58_t_5
                0x0000000000025814                d_s58_t_6
                0x0000000000025818                d_s58_t_7
                0x000000000002581c                d_s58_t_8
                0x0000000000025820                d_s58_t_9
                0x0000000000025824                d_s59_t_0
                0x0000000000025828                d_s59_t_1
                0x000000000002582c                d_s59_t_2
                0x0000000000025854                d_s59_t_3
                0x0000000000025858                d_s59_t_4
                0x0000000000025880                d_s59_t_5
                0x00000000000258a8                d_s59_t_6
                0x00000000000258d0                d_s59_t_7
                0x00000000000258d4                d_s59_t_8
                0x00000000000258fc                d_s59_t_9
                0x0000000000025900                d_s60_t_0
                0x0000000000025904                d_s60_t_1
                0x000000000002592c                d_s60_t_2
                0x0000000000025954                d_s60_t_3
                0x0000000000025958                d_s60_t_4
                0x0000000000025980                d_s60_t_5
                0x0000000000025984                d_s60_t_6
                0x00000000000259ac                d_s60_t_7
                0x00000000000259b0                d_s60_t_8
                0x00000000000259d8                d_s60_t_9
                0x00000000000259dc                d_s61_t_0
                0x0000000000025a04                d_s61_t_1
                0x0000000000025a08                d_s61_t_2
                0x0000000000025a0c                d_s61_t_3
                0x0000000000025a10                d_s61_t_4
                0x0000000000025a38                d_s61_t_5
                0x0000000000025a3c                d_s61_t_6
                0x0000000000025a64                d_s61_t_7
                0x0000000000025a8c                d_s61_t_8
                0x0000000000025ab4                d_s61_t_9
                0x0000000000025ab8                d_s62_t_0
                0x0000000000025ae0                d_s62_t_1
                0x0000000000025ae4                d_s62_t_2
                0x0000000000025b0c                d_s62_t_3
                0x0000000000025b34                d_s62_t_4
                0x0000000000025b38                d_s62_t_5
                0x0000000000025b3c                d_s62_t_6
                0x0000000000025b40                d_s62_t_7
                0x0000000000025b68                d_s62_t_8
                0x0000000000025b6c                d_s62_t_9
                0x0000000000025b94                d_s63_t_0
                0x0000000000025b98                d_s63_t_1
                0x0000000000025b9c                d_s63_t_2
                0x0000000000025bc4                d_s63_t_3
                0x0000000000025bc8                d_s63_t_4
                0x0000000000025bf0                d_s63_t_5
                0x0000000000025c18                d_s63_t_6
                0x0000000000025c40                d_s63_t_7
                0x0000000000025c44                d_s63_t_8
                0x0000000000025c48                d_s63_t_9
                0x0000000000025c70                d_s64_t_0
                0x0000000000025c74                d_s64_t_1
                0x0000000000025c78                d_s64_t_2
                0x0000000000025ca0                d_s64_t_3
                0x0000000000025ca4                d_s64_t_4
                0x0000000000025ccc                d_s64_t_5
                0x0000000000025cf4                d_s64_t_6
                0x0000000000025d1c                d_s64_t_7
                0x0000000000025d20                d_s64_t_8
                0x0000000000025d48                d_s64_t_9
                0x0000000000025d4c                d_s65_t_0
                0x0000000000025d50                d_s65_t_1
                0x0000000000025d54                d_s65_t_2
                0x0000000000025d58                d_s65_t_3
                0x0000000000025d80                d_s65_t_4
                0x0000000000025d84                d_s65_t_5
                0x0000000000025dac                d_s65_t_6
                0x0000000000025dd4                d_s65_t_7
                0x0000000000025dd8                d_s65_t_8
                0x0000000000025e00                d_s65_t_9
                0x0000000000025e28                d_s66_t_0
                0x0000000000025e50                d_s66_t_1
                0x0000000000025e78                d_s66_t_2
                0x0000000000025e7c                d_s66_t_3
                0x0000000000025e80                d_s66_t_4
                0x0000000000025e84                d_s66_t_5
                0x0000000000025eac                d_s66_t_6
                0x0000000000025ed4                d_s66_t_7
                0x0000000000025ed8                d_s66_t_8
                0x0000000000025f00                d_s66_t_9
                0x0000000000025f04                d_s67_t_0
                0x0000000000025f08                d_s67_t_1
                0x0000000000025f30                d_s67_t_2
                0x0000000000025f34                d_s67_t_3
                0x0000000000025f5c                d_s67_t_4
                0x0000000000025f84                d_s67_t_5
                0x0000000000025f88                d_s67_t_6
                0x0000000000025f8c                d_s67_t_7
                0x0000000000025fb4                d_s67_t_8
                0x0000000000025fb8                d_s67_t_9
                0x0000000000025fe0                d_s68_t_0
                0x0000000000026008                d_s68_t_1
                0x0000000000026030                d_s68_t_2
                0x0000000000026034                d_s68_t_3
                0x000000000002605c                d_s68_t_4
                0x0000000000026060                d_s68_t_5
                0x0000000000026064                d_s68_t_6
                0x000000000002608c                d_s68_t_7
                0x0000000000026090                d_s68_t_8
                0x0000000000026094                d_s68_t_9
                0x00000000000260bc                d_s69_t_0
                0x00000000000260e4                d_s69_t_1
                0x00000000000260e8                d_s69_t_2
                0x0000000000026110                d_s69_t_3
                0x0000000000026114                d_s69_t_4
                0x000000000002613c                d_s69_t_5
                0x0000000000026140                d_s69_t_6
                0x0000000000026168                d_s69_t_7
                0x000000000002616c                d_s69_t_8
                0x0000000000026194                d_s69_t_9
                0x0000000000026198                d_s70_t_0
                0x000000000002619c                d_s70_t_1
                0x00000000000261a0                d_s70_t_2
                0x00000000000261a4                d_s70_t_3
                0x00000000000261cc                d_s70_t_4
                0x00000000000261f4                d_s70_t_5
                0x00000000000261f8                d_s70_t_6
                0x0000000000026220                d_s70_t_7
                0x0000000000026248                d_s70_t_8
                0x0000000000026270                d_s70_t_9
                0x0000000000026274                d_s71_t_0
                0x0000000000026278                d_s71_t_1
                0x00000000000262a0                d_s71_t_2
                0x00000000000262c8                d_s71_t_3
                0x00000000000262cc                d_s71_t_4
                0x00000000000262d0                d_s71_t_5
                0x00000000000262d4                d_s71_t_6
                0x00000000000262fc                d_s71_t_7
                0x0000000000026324                d_s71_t_8
                0x000000000002634c                d_s71_t_9
                0x0000000000026350                d_s72_t_0
                0x0000000000026378                d_s72_t_1
                0x00000000000263a0                d_s72_t_2
                0x00000000000263a4                d_s72_t_3
                0x00000000000263a8                d_s72_t_4
                0x00000000000263ac                d_s72_t_5
                0x00000000000263d4                d_s72_t_6
                0x00000000000263d8                d_s72_t_7
                0x0000000000026400                d_s72_t_8
                0x0000000000026404                d_s72_t_9
                0x000000000002642c                d_s73_t_0
                0x0000000000026430                d_s73_t_1
                0x0000000000026434                d_s73_t_2
                0x0000000000026438                d_s73_t_3
                0x000000000002643c                d_s73_t_4
                0x0000000000026440                d_s73_t_5
                0x0000000000026468                d_s73_t_6
                0x0000000000026490                d_s73_t_7
                0x00000000000264b8                d_s73_t_8
                0x00000000000264e0                d_s73_t_9
                0x0000000000026508                d_s74_t_0
                0x000000000002650c                d_s74_t_1
                0x0000000000026510                d_s74_t_2
                0x0000000000026538                d_s74_t_3
                0x000000000002653c                d_s74_t_4
                0x0000000000026564                d_s74_t_5
                0x000000000002658c                d_s74_t_6
                0x00000000000265b4                d_s74_t_7
                0x00000000000265b8                d_s74_t_8
                0x00000000000265bc                d_s74_t_9
                0x00000000000265e4                d_s75_t_0
                0x00000000000265e8                d_s75_t_1
                0x00000000000265ec                d_s75_t_2
                0x00000000000265f0                d_s75_t_3
                0x00000000000265f4                d_s75_t_4
                0x000000000002661c                d_s75_t_5
                0x0000000000026620                d_s75_t_6
                0x0000000000026648                d_s75_t_7
                0x0000000000026670                d_s75_t_8
                0x0000000000026698                d_s75_t_9
                0x00000000000266c0                d_s76_t_0
                0x00000000000266c4                d_s76_t_1
                0x00000000000266ec                d_s76_t_2
                0x0000000000026714                d_s76_t_3
                0x000000000002673c                d_s76_t_4
                0x0000000000026740                d_s76_t_5
                0x0000000000026768                d_s76_t_6
                0x0000000000026790                d_s76_t_7
                0x0000000000026794                d_s76_t_8
                0x0000000000026798                d_s76_t_9
                0x000000000002679c                d_s77_t_0
                0x00000000000267a0                d_s77_t_1
                0x00000000000267c8                d_s77_t_2
                0x00000000000267cc                d_s77_t_3
                0x00000000000267d0                d_s77_t_4
                0x00000000000267d4                d_s77_t_5
                0x00000000000267fc                d_s77_t_6
                0x0000000000026824                d_s77_t_7
                0x000000000002684c                d_s77_t_8
                0x0000000000026850                d_s77_t_9
                0x0000000000026878                d_s78_t_0
                0x000000000002687c                d_s78_t_1
                0x00000000000268a4                d_s78_t_2
                0x00000000000268cc                d_s78_t_3
                0x00000000000268d0                d_s78_t_4
                0x00000000000268f8                d_s78_t_5
                0x00000000000268fc                d_s78_t_6
                0x0000000000026900                d_s78_t_7
                0x0000000000026928                d_s78_t_8
                0x0000000000026950                d_s78_t_9
                0x0000000000026954                d_s79_t_0
                0x0000000000026958                d_s79_t_1
                0x000000000002695c                d_s79_t_2
                0x0000000000026984                d_s79_t_3
                0x0000000000026988                d_s79_t_4
                0x00000000000269b0                d_s79_t_5
                0x00000000000269d8                d_s79_t_6
                0x0000000000026a00                d_s79_t_7
                0x0000000000026a04                d_s79_t_8
                0x0000000000026a08                d_s79_t_9
                0x0000000000026a30                d_s80_t_0
                0x0000000000026a58                d_s80_t_1
                0x0000000000026a5c                d_s80_t_2
                0x0000000000026a84                d_s80_t_3
                0x0000000000026a88                d_s80_t_4
                0x0000000000026ab0                d_s80_t_5
                0x0000000000026ad8                d_s80_t_6
                0x0000000000026adc                d_s80_t_7
                0x0000000000026ae0                d_s80_t_8
                0x0000000000026ae4                d_s80_t_9
                0x0000000000026b0c                d_s81_t_0
                0x0000000000026b10                d_s81_t_1
                0x0000000000026b38                d_s81_t_2
                0x0000000000026b60                d_s81_t_3
                0x0000000000026b64                d_s81_t_4
                0x0000000000026b8c                d_s81_t_5
                0x0000000000026b90                d_s81_t_6
                0x0000000000026bb8                d_s81_t_7
                0x0000000000026bbc                d_s81_t_8
                0x0000000000026bc0                d_s81_t_9
                0x0000000000026be8                d_s82_t_0
                0x0000000000026bec                d_s82_t_1
                0x0000000000026c14                d_s82_t_2
                0x0000000000026c3c                d_s82_t_3
                0x0000000000026c40                d_s82_t_4
                0x0000000000026c44                d_s82_t_5
                0x0000000000026c48                d_s82_t_6
                0x0000000000026c70                d_s82_t_7
                0x0000000000026c98                d_s82_t_8
                0x0000000000026cc0                d_s82_t_9
                0x0000000000026cc4                d_s83_t_0
                0x0000000000026cec                d_s83_t_1
                0x0000000000026cf0                d_s83_t_2
                0x0000000000026d18                d_s83_t_3
                0x0000000000026d1c                d_s83_t_4
                0x0000000000026d20                d_s83_t_5
                0x0000000000026d24                d_s83_t_6
                0x0000000000026d4c                d_s83_t_7
                0x0000000000026d74                d_s83_t_8
                0x0000000000026d78                d_s83_t_9
                0x0000000000026da0                d_s84_t_0
                0x0000000000026dc8                d_s84_t_1
                0x0000000000026df0                d_s84_t_2
                0x0000000000026e18                d_s84_t_3
                0x0000000000026e1c                d_s84_t_4
                0x0000000000026e20                d_s84_t_5
                0x0000000000026e24                d_s84_t_6
                0x0000000000026e28                d_s84_t_7
                0x0000000000026e2c                d_s84_t_8
                0x0000000000026e54                d_s84_t_9
                0x0000000000026e7c                d_s85_t_0
                0x0000000000026ea4                d_s85_t_1
                0x0000000000026ecc                d_s85_t_2
                0x0000000000026ed0                d_s85_t_3
                0x0000000000026ed4                d_s85_t_4
                0x0000000000026efc                d_s85_t_5
                0x0000000000026f24                d_s85_t_6
                0x0000000000026f28                d_s85_t_7
                0x0000000000026f50                d_s85_t_8
                0x0000000000026f54                d_s85_t_9
                0x0000000000026f58                d_s86_t_0
                0x0000000000026f5c                d_s86_t_1
                0x0000000000026f84                d_s86_t_2
                0x0000000000026f88                d_s86_t_3
                0x0000000000026f8c                d_s86_t_4
                0x0000000000026fb4                d_s86_t_5
                0x0000000000026fdc                d_s86_t_6
                0x0000000000027004                d_s86_t_7
                0x000000000002702c                d_s86_t_8
                0x0000000000027030                d_s86_t_9
                0x0000000000027034                d_s87_t_0
                0x000000000002705c                d_s87_t_1
                0x0000000000027060                d_s87_t_2
                0x0000000000027088                d_s87_t_3
                0x000000000002708c                d_s87_t_4
                0x0000000000027090                d_s87_t_5
                0x0000000000027094                d_s87_t_6
                0x0000000000027098                d_s87_t_7
                0x00000000000270c0                d_s87_t_8
                0x00000000000270e8                d_s87_t_9
                0x0000000000027110                d_s88_t_0
                0x0000000000027114                d_s88_t_1
                0x000000000002713c                d_s88_t_2
                0x0000000000027164                d_s88_t_3
                0x0000000000027168                d_s88_t_4
                0x0000000000027190                d_s88_t_5
                0x00000000000271b8                d_s88_t_6
                0x00000000000271bc                d_s88_t_7
                0x00000000000271c0                d_s88_t_8
                0x00000000000271c4                d_s88_t_9
                0x00000000000271ec                d_s89_t_0
                0x00000000000271f0                d_s89_t_1
                0x0000000000027218                d_s89_t_2
                0x0000000000027240                d_s89_t_3
                0x0000000000027244                d_s89_t_4
                0x000000000002726c                d_s89_t_5
                0x0000000000027270                d_s89_t_6
                0x0000000000027274                d_s89_t_7
                0x000000000002729c                d_s89_t_8
                0x00000000000272a0                d_s89_t_9
                0x00000000000272c8                d_s90_t_0
                0x00000000000272cc                d_s90_t_1
                0x00000000000272f4                d_s90_t_2
                0x00000000000272f8                d_s90_t_3
                0x00000000000272fc                d_s90_t_4
                0x0000000000027324                d_s90_t_5
                0x0000000000027328                d_s90_t_6
                0x0000000000027350                d_s90_t_7
                0x0000000000027354                d_s90_t_8
                0x000000000002737c                d_s90_t_9
                0x00000000000273a4                d_s91_t_0
                0x00000000000273a8                d_s91_t_1
                0x00000000000273d0                d_s91_t_2
                0x00000000000273f8                d_s91_t_3
                0x0000000000027420                d_s91_t_4
                0x0000000000027424                d_s91_t_5
                0x0000000000027428                d_s91_t_6
                0x000000000002742c                d_s91_t_7
                0x0000000000027430                d_s91_t_8
                0x0000000000027458                d_s91_t_9
                0x0000000000027480                d_s92_t_0
                0x00000000000274a8                d_s92_t_1
                0x00000000000274ac                d_s92_t_2
                0x00000000000274d4                d_s92_t_3
                0x00000000000274fc                d_s92_t_4
                0x0000000000027500                d_s92_t_5
                0x0000000000027528                d_s92_t_6
                0x000000000002752c                d_s92_t_7
                0x0000000000027554                d_s92_t_8
                0x0000000000027558                d_s92_t_9
                0x000000000002755c                d_s93_t_0
                0x0000000000027584                d_s93_t_1
                0x00000000000275ac                d_s93_t_2
                0x00000000000275d4                d_s93_t_3
                0x00000000000275d8                d_s93_t_4
                0x00000000000275dc                d_s93_t_5
                0x0000000000027604                d_s93_t_6
                0x000000000002762c                d_s93_t_7
                0x0000000000027630                d_s93_t_8
                0x0000000000027634                d_s93_t_9
                0x0000000000027638                d_s94_t_0
                0x000000000002763c                d_s94_t_1
                0x0000000000027664                d_s94_t_2
                0x000000000002768c                d_s94_t_3
                0x0000000000027690                d_s94_t_4
                0x00000000000276b8                d_s94_t_5
                0x00000000000276e0                d_s94_t_6
                0x00000000000276e4                d_s94_t_7
                0x00000000000276e8                d_s94_t_8
                0x00000000000276ec                d_s94_t_9
                0x0000000000027714                d_s95_t_0
                0x000000000002773c                d_s95_t_1
                0x0000000000027740                d_s95_t_2
                0x0000000000027744                d_s95_t_3
                0x0000000000027748                d_s95_t_4
                0x0000000000027770                d_s95_t_5
                0x0000000000027774                d_s95_t_6
                0x000000000002779c                d_s95_t_7
                0x00000000000277a0                d_s95_t_8
                0x00000000000277c8                d_s95_t_9
                0x00000000000277f0                d_s96_t_0
                0x00000000000277f4                d_s96_t_1
                0x00000000000277f8                d_s96_t_2
                0x00000000000277fc                d_s96_t_3
                0x0000000000027824                d_s96_t_4
                0x000000000002784c                d_s96_t_5
                0x0000000000027874                d_s96_t_6
                0x000000000002789c                d_s96_t_7
                0x00000000000278c4                d_s96_t_8
                0x00000000000278c8                d_s96_t_9
                0x00000000000278cc                d_s97_t_0
                0x00000000000278d0                d_s97_t_1
                0x00000000000278f8                d_s97_t_2
                0x00000000000278fc                d_s97_t_3
                0x0000000000027900                d_s97_t_4
                0x0000000000027928                d_s97_t_5
                0x0000000000027950                d_s97_t_6
                0x0000000000027978                d_s97_t_7
                0x000000000002797c                d_s97_t_8
                0x0000000000027980                d_s97_t_9
                0x00000000000279a8                d_s98_t_0
                0x00000000000279d0                d_s98_t_1
                0x00000000000279f8                d_s98_t_2
                0x00000000000279fc                d_s98_t_3
                0x0000000000027a00                d_s98_t_4
                0x0000000000027a04                d_s98_t_5
                0x0000000000027a2c                d_s98_t_6
                0x0000000000027a30                d_s98_t_7
                0x0000000000027a34                d_s98_t_8
                0x0000000000027a5c                d_s98_t_9
                0x0000000000027a84                d_s99_t_0
                0x0000000000027a88                d_s99_t_1
                0x0000000000027ab0                d_s99_t_2
                0x0000000000027ab4                d_s99_t_3
                0x0000000000027ab8                d_s99_t_4
                0x0000000000027abc                d_s99_t_5
                0x0000000000027ac0                d_s99_t_6
                0x0000000000027ae8                d_s99_t_7
                0x0000000000027b10                d_s99_t_8
                0x0000000000027b38                d_s99_t_9
                0x0000000000027b60                ws0
                0x0000000000027b88                ws1
                0x0000000000027bb0                ws2
                0x0000000000027bd8                ws3
                0x0000000000027c00                ws4
                0x0000000000027c28                ws5
                0x0000000000027c50                ws6
                0x0000000000027c78                ws7
                0x0000000000027ca0                ws8
                0x0000000000027cc8                ws9
                0x0000000000027cf0                ws10
                0x0000000000027d18                ws11
                0x0000000000027d40                ws12
                0x0000000000027d68                ws13
                0x0000000000027d90                ws14
                0x0000000000027db8                ws15
                0x0000000000027de0                ws16
                0x0000000000027e08                ws17
                0x0000000000027e30                ws18
                0x0000000000027e58                ws19
                0x0000000000027e80                ws20
                0x0000000000027ea8                ws21
                0x0000000000027ed0                ws22
                0x0000000000027ef8                ws23
                0x0000000000027f20                ws24
                0x0000000000027f48                ws25
                0x0000000000027f70                ws26
                0x0000000000027f98                ws27
                0x0000000000027fc0                ws28
                0x0000000000027fe8                ws29
                0x0000000000028010                ws30
                0x0000000000028038                ws31
                0x0000000000028060                ws32
                0x0000000000028088                ws33
                0x00000000000280b0                ws34
                0x00000000000280d8                ws35
                0x0000000000028100                ws36
                0x0000000000028128                ws37
                0x0000000000028150                ws38
                0x0000000000028178                ws39
                0x00000000000281a0                ws40
                0x00000000000281c8                ws41
                0x00000000000281f0                ws42
                0x0000000000028218                ws43
                0x0000000000028240                ws44
                0x0000000000028268                ws45
                0x0000000000028290                ws46
                0x00000000000282b8                ws47
                0x00000000000282e0                ws48
                0x0000000000028308                ws49
                0x0000000000028330                ws50
                0x0000000000028358                ws51
                0x0000000000028380                ws52
                0x00000000000283a8                ws53
                0x00000000000283d0                ws54
                0x00000000000283f8                ws55
                0x0000000000028420                ws56
                0x0000000000028448                ws57
                0x0000000000028470                ws58
                0x0000000000028498                ws59
                0x00000000000284c0                ws60
                0x00000000000284e8                ws61
                0x0000000000028510                ws62
                0x0000000000028538                ws63
                0x0000000000028560                ws64
                0x0000000000028588                ws65
                0x00000000000285b0                ws66
                0x00000000000285d8                ws67
                0x0000000000028600                ws68
                0x0000000000028628                ws69
                0x0000000000028650                ws70
                0x0000000000028678                ws71
                0x00000000000286a0                ws72
                0x00000000000286c8                ws73
                0x00000000000286f0                ws74
                0x0000000000028718                ws75
                0x0000000000028740                ws76
                0x0000000000028768                ws77
                0x0000000000028790                ws78
                0x00000000000287b8                ws79
                0x00000000000287e0                ws80
                0x0000000000028808                ws81
                0x0000000000028830                ws82
                0x0000000000028858                ws83
                0x0000000000028880                ws84
                0x00000000000288a8                ws85
                0x00000000000288d0                ws86
                0x00000000000288f8                ws87
                0x0000000000028920                ws88
                0x0000000000028948                ws89
                0x0000000000028970                ws90
                0x0000000000028998                ws91
                0x00000000000289c0                ws92
                0x00000000000289e8                ws93
                0x0000000000028a10                ws94
                0x0000000000028a38                ws95
                0x0000000000028a60                ws96
                0x0000000000028a88                ws97
                0x0000000000028ab0                ws98
                0x0000000000028ad8                ws99
                0x0000000000028b00                ps0
                0x0000000000028b28                ps1
                0x0000000000028b50                ps2
                0x0000000000028b78                ps3
                0x0000000000028ba0                ps4
                0x0000000000028bc8                ps5
                0x0000000000028bf0                ps6
                0x0000000000028c18                ps7
                0x0000000000028c40                ps8
                0x0000000000028c68                ps9
                0x0000000000028c90                ps10
                0x0000000000028cb8                ps11
                0x0000000000028ce0                ps12
                0x0000000000028d08                ps13
                0x0000000000028d30                ps14
                0x0000000000028d58                ps15
                0x0000000000028d80                ps16
                0x0000000000028da8                ps17
                0x0000000000028dd0                ps18
                0x0000000000028df8                ps19
                0x0000000000028e20                ps20
                0x0000000000028e48                ps21
                0x0000000000028e70                ps22
                0x0000000000028e98                ps23
                0x0000000000028ec0                ps24
                0x0000000000028ee8                ps25
                0x0000000000028f10                ps26
                0x0000000000028f38                ps27
                0x0000000000028f60                ps28
                0x0000000000028f88                ps29
                0x0000000000028fb0                ps30
                0x0000000000028fd8                ps31
                0x0000000000029000                ps32
                0x0000000000029028                ps33
                0x0000000000029050                ps34
                0x0000000000029078                ps35
                0x00000000000290a0                ps36
                0x00000000000290c8                ps37
                0x00000000000290f0                ps38
                0x0000000000029118                ps39
                0x0000000000029140                ps40
                0x0000000000029168                ps41
                0x0000000000029190                ps42
                0x00000000000291b8                ps43
                0x00000000000291e0                ps44
                0x0000000000029208                ps45
                0x0000000000029230                ps46
                0x0000000000029258                ps47
                0x0000000000029280                ps48
                0x00000000000292a8                ps49
                0x00000000000292d0                ps50
                0x00000000000292f8                ps51
                0x0000000000029320                ps52
                0x0000000000029348                ps53
                0x0000000000029370                ps54
                0x0000000000029398                ps55
                0x00000000000293c0                ps56
                0x00000000000293e8                ps57
                0x0000000000029410                ps58
                0x0000000000029438                ps59
                0x0000000000029460                ps60
                0x0000000000029488                ps61
                0x00000000000294b0                ps62
                0x00000000000294d8                ps63
                0x0000000000029500                ps64
                0x0000000000029528                ps65
                0x0000000000029550                ps66
                0x0000000000029578                ps67
                0x00000000000295a0                ps68
                0x00000000000295c8                ps69
                0x00000000000295f0                ps70
                0x0000000000029618                ps71
                0x0000000000029640                ps72
                0x0000000000029668                ps73
                0x0000000000029690                ps74
                0x00000000000296b8                ps75
                0x00000000000296e0                ps76
                0x0000000000029708                ps77
                0x0000000000029730                ps78
                0x0000000000029758                ps79
                0x0000000000029780                ps80
                0x00000000000297a8                ps81
                0x00000000000297d0                ps82
                0x00000000000297f8                ps83
                0x0000000000029820                ps84
                0x0000000000029848                ps85
                0x0000000000029870                ps86
                0x0000000000029898                ps87
                0x00000000000298c0                ps88
                0x00000000000298e8                ps89
                0x0000000000029910                ps90
                0x0000000000029938                ps91
                0x0000000000029960                ps92
                0x0000000000029988                ps93
                0x00000000000299b0                ps94
                0x00000000000299d8                ps95
                0x0000000000029a00                ps96
                0x0000000000029a28                ps97
                0x0000000000029a50                ps98
                0x0000000000029a78                ps99
                0x0000000000029aa0                ds0
                0x0000000000029ac8                ds1
                0x0000000000029af0                ds2
                0x0000000000029b18                ds3
                0x0000000000029b40                ds4
                0x0000000000029b68                ds5
                0x0000000000029b90                ds6
                0x0000000000029bb8                ds7
                0x0000000000029be0                ds8
                0x0000000000029c08                ds9
                0x0000000000029c30                ds10
                0x0000000000029c58                ds11
                0x0000000000029c80                ds12
                0x0000000000029ca8                ds13
                0x0000000000029cd0                ds14
                0x0000000000029cf8                ds15
                0x0000000000029d20                ds16
                0x0000000000029d48                ds17
                0x0000000000029d70                ds18
                0x0000000000029d98                ds19
                0x0000000000029dc0                ds20
                0x0000000000029de8                ds21
                0x0000000000029e10                ds22
                0x0000000000029e38                ds23
                0x0000000000029e60                ds24
                0x0000000000029e88                ds25
                0x0000000000029eb0                ds26
                0x0000000000029ed8                ds27
                0x0000000000029f00                ds28
                0x0000000000029f28                ds29
                0x0000000000029f50                ds30
                0x0000000000029f78                ds31
                0x0000000000029fa0                ds32
                0x0000000000029fc8                ds33
                0x0000000000029ff0                ds34
                0x000000000002a018                ds35
                0x000000000002a040                ds36
                0x000000000002a068                ds37
                0x000000000002a090                ds38
                0x000000000002a0b8                ds39
                0x000000000002a0e0                ds40
                0x000000000002a108                ds41
                0x000000000002a130                ds42
                0x000000000002a158                ds43
                0x000000000002a180                ds44
                0x000000000002a1a8                ds45
                0x000000000002a1d0                ds46
                0x000000000002a1f8                ds47
                0x000000000002a220                ds48
                0x000000000002a248                ds49
                0x000000000002a270                ds50
                0x000000000002a298                ds51
                0x000000000002a2c0                ds52
                0x000000000002a2e8                ds53
                0x000000000002a310                ds54
                0x000000000002a338                ds55
                0x000000000002a360                ds56
                0x000000000002a388                ds57
                0x000000000002a3b0                ds58
                0x000000000002a3d8                ds59
                0x000000000002a400                ds60
                0x000000000002a428                ds61
                0x000000000002a450                ds62
                0x000000000002a478                ds63
                0x000000000002a4a0                ds64
                0x000000000002a4c8                ds65
                0x000000000002a4f0                ds66
                0x000000000002a518                ds67
                0x000000000002a540                ds68
                0x000000000002a568                ds69
                0x000000000002a590                ds70
                0x000000000002a5b8                ds71
                0x000000000002a5e0                ds72
                0x000000000002a608                ds73
                0x000000000002a630                ds74
                0x000000000002a658                ds75
                0x000000000002a680                ds76
                0x000000000002a6a8                ds77
                0x000000000002a6d0                ds78
                0x000000000002a6f8                ds79
                0x000000000002a720                ds80
                0x000000000002a748                ds81
                0x000000000002a770                ds82
                0x000000000002a798                ds83
                0x000000000002a7c0                ds84
                0x000000000002a7e8                ds85
                0x000000000002a810                ds86
                0x000000000002a838                ds87
                0x000000000002a860                ds88
                0x000000000002a888                ds89
                0x000000000002a8b0                ds90
                0x000000000002a8d8                ds91
                0x000000000002a900                ds92
                0x000000000002a928                ds93
                0x000000000002a950                ds94
                0x000000000002a978                ds95
                0x000000000002a9a0                ds96
                0x000000000002a9c8                ds97
                0x000000000002a9f0                ds98
                0x000000000002aa18                ds99
                0x000000000002aa40                periods
                0x000000000002abd0                wcets
                0x000000000002ad60                deadlines
                0x000000000002aef0                numOfModes
                0x000000000002be90                modeBreaks
 .data          0x000000000002beb8        0x0 /usr/lib/gcc/arm-none-eabi/4.9.3/libgcc.a(_udivsi3.o)
 .data          0x000000000002beb8        0x0 /usr/lib/gcc/arm-none-eabi/4.9.3/libgcc.a(_dvmd_tls.o)
 .data          0x000000000002beb8        0x0 /usr/lib/gcc/arm-none-eabi/4.9.3/libgcc.a(_arm_addsubdf3.o)
 .data          0x000000000002beb8        0x0 /usr/lib/gcc/arm-none-eabi/4.9.3/libgcc.a(_arm_muldivdf3.o)
 .data          0x000000000002beb8        0x0 /usr/lib/gcc/arm-none-eabi/4.9.3/libgcc.a(_arm_fixunsdfsi.o)
 .data          0x000000000002beb8        0x0 /usr/lib/arm-none-eabi/lib/libc.a(lib_a-memcpy.o)
 .data          0x000000000002beb8        0x0 /usr/lib/arm-none-eabi/lib/libc.a(lib_a-memset.o)
 .data          0x000000000002beb8        0x0 /usr/lib/arm-none-eabi/lib/libc.a(lib_a-strncpy.o)

.igot.plt       0x000000000002beb8        0x0
 .igot.plt      0x000000000002beb8        0x0 /home/woods/Documents/Bachelorthesis/ModeLevelTaskModel_RM/build/FreeRTOS/Source/portable/GCC/RaspberryPi/port.o

.bss            0x000000000002beb8   0xfa4abd
                0x000000000002beb8                __bss_start = .
 *(.bss)
 .bss           0x000000000002beb8        0x0 /home/woods/Documents/Bachelorthesis/ModeLevelTaskModel_RM/build/FreeRTOS/Source/portable/GCC/RaspberryPi/port.o
 .bss           0x000000000002beb8        0x4 /home/woods/Documents/Bachelorthesis/ModeLevelTaskModel_RM/build/FreeRTOS/Source/portable/GCC/RaspberryPi/portisr.o
                0x000000000002beb8                g_bStarted
 .bss           0x000000000002bebc       0x80 /home/woods/Documents/Bachelorthesis/ModeLevelTaskModel_RM/build/FreeRTOS/Source/croutine.o
                0x000000000002bf28                pxCurrentCoRoutine
 .bss           0x000000000002bf3c        0x0 /home/woods/Documents/Bachelorthesis/ModeLevelTaskModel_RM/build/FreeRTOS/Source/list.o
 .bss           0x000000000002bf3c        0x0 /home/woods/Documents/Bachelorthesis/ModeLevelTaskModel_RM/build/FreeRTOS/Source/queue.o
 .bss           0x000000000002bf3c   0xf42cf8 /home/woods/Documents/Bachelorthesis/ModeLevelTaskModel_RM/build/FreeRTOS/Source/tasks.o
                0x000000000002bf3c                pxCurrentTCB
                0x000000000002c7d0                n
                0x000000000002c7d4                priorityQueue
                0x000000000002c800                externalInput
                0x000000000002c804                evals
                0x000000000002c82c                startTimes
                0x00000000003fd12c                endTimes
                0x00000000007cda2c                mode
                0x0000000000b9e32c                deads
                0x0000000000f6ec2c                bootTime
                0x0000000000f6ec30                taskset
 .bss           0x0000000000f6ec34        0x0 /home/woods/Documents/Bachelorthesis/ModeLevelTaskModel_RM/build/FreeRTOS/Source/binaryHeap.o
 .bss           0x0000000000f6ec34        0x0 /home/woods/Documents/Bachelorthesis/ModeLevelTaskModel_RM/build/FreeRTOS/Source/pairingHeap.o
 .bss           0x0000000000f6ec34        0x0 /home/woods/Documents/Bachelorthesis/ModeLevelTaskModel_RM/build/FreeRTOS/Source/dll.o
 .bss           0x0000000000f6ec34      0x2ac /home/woods/Documents/Bachelorthesis/ModeLevelTaskModel_RM/build/Demo/Drivers/irq.o
 .bss           0x0000000000f6eee0        0x0 /home/woods/Documents/Bachelorthesis/ModeLevelTaskModel_RM/build/Demo/Drivers/gpio.o
 .bss           0x0000000000f6eee0        0x0 /home/woods/Documents/Bachelorthesis/ModeLevelTaskModel_RM/build/Demo/Drivers/uart.o
 .bss           0x0000000000f6eee0        0x0 /home/woods/Documents/Bachelorthesis/ModeLevelTaskModel_RM/build/Demo/Drivers/print_473.o
 .bss           0x0000000000f6eee0    0x61a90 /home/woods/Documents/Bachelorthesis/ModeLevelTaskModel_RM/build//FreeRTOS/Source/portable/MemMang/heap_4.o
                0x0000000000fd096c                allocated
 .bss           0x0000000000fd0970        0x0 /home/woods/Documents/Bachelorthesis/ModeLevelTaskModel_RM/build/Demo/startup.o
 .bss           0x0000000000fd0970        0x4 /home/woods/Documents/Bachelorthesis/ModeLevelTaskModel_RM/build/Demo/main.o
                0x0000000000fd0970                w_s52_t_8
 .bss           0x0000000000fd0974        0x0 /usr/lib/gcc/arm-none-eabi/4.9.3/libgcc.a(_udivsi3.o)
 .bss           0x0000000000fd0974        0x0 /usr/lib/gcc/arm-none-eabi/4.9.3/libgcc.a(_dvmd_tls.o)
 .bss           0x0000000000fd0974        0x0 /usr/lib/gcc/arm-none-eabi/4.9.3/libgcc.a(_arm_addsubdf3.o)
 .bss           0x0000000000fd0974        0x0 /usr/lib/gcc/arm-none-eabi/4.9.3/libgcc.a(_arm_muldivdf3.o)
 .bss           0x0000000000fd0974        0x0 /usr/lib/gcc/arm-none-eabi/4.9.3/libgcc.a(_arm_fixunsdfsi.o)
 .bss           0x0000000000fd0974        0x0 /usr/lib/arm-none-eabi/lib/libc.a(lib_a-memcpy.o)
 .bss           0x0000000000fd0974        0x0 /usr/lib/arm-none-eabi/lib/libc.a(lib_a-memset.o)
 .bss           0x0000000000fd0974        0x0 /usr/lib/arm-none-eabi/lib/libc.a(lib_a-strncpy.o)
 *(.bss.*)
                0x0000000000fd0974                __bss_end = .
 COMMON         0x0000000000fd0974        0x1 /home/woods/Documents/Bachelorthesis/ModeLevelTaskModel_RM/build/FreeRTOS/Source/portable/GCC/RaspberryPi/portisr.o
                0x0000000000fd0974                s_bWereEnabled
                0x0000000010010000                _estack = (ORIGIN (RAM) + LENGTH (RAM))
LOAD /usr/lib/gcc/arm-none-eabi/4.9.3/libgcc.a
LOAD /usr/lib/arm-none-eabi/lib/libc.a
OUTPUT(kernel.elf elf32-littlearm)

.debug_info     0x0000000000000000    0x12c9b
 .debug_info    0x0000000000000000      0x2a5 /home/woods/Documents/Bachelorthesis/ModeLevelTaskModel_RM/build/FreeRTOS/Source/portable/GCC/RaspberryPi/port.o
 .debug_info    0x00000000000002a5      0x1b3 /home/woods/Documents/Bachelorthesis/ModeLevelTaskModel_RM/build/FreeRTOS/Source/portable/GCC/RaspberryPi/portisr.o
 .debug_info    0x0000000000000458      0x46a /home/woods/Documents/Bachelorthesis/ModeLevelTaskModel_RM/build/FreeRTOS/Source/croutine.o
 .debug_info    0x00000000000008c2      0x27f /home/woods/Documents/Bachelorthesis/ModeLevelTaskModel_RM/build/FreeRTOS/Source/list.o
 .debug_info    0x0000000000000b41      0x71c /home/woods/Documents/Bachelorthesis/ModeLevelTaskModel_RM/build/FreeRTOS/Source/queue.o
 .debug_info    0x000000000000125d     0x15be /home/woods/Documents/Bachelorthesis/ModeLevelTaskModel_RM/build/FreeRTOS/Source/tasks.o
 .debug_info    0x000000000000281b      0x19c /home/woods/Documents/Bachelorthesis/ModeLevelTaskModel_RM/build/FreeRTOS/Source/binaryHeap.o
 .debug_info    0x00000000000029b7      0x206 /home/woods/Documents/Bachelorthesis/ModeLevelTaskModel_RM/build/FreeRTOS/Source/pairingHeap.o
 .debug_info    0x0000000000002bbd      0x1a7 /home/woods/Documents/Bachelorthesis/ModeLevelTaskModel_RM/build/FreeRTOS/Source/dll.o
 .debug_info    0x0000000000002d64      0x2bb /home/woods/Documents/Bachelorthesis/ModeLevelTaskModel_RM/build/Demo/Drivers/irq.o
 .debug_info    0x000000000000301f      0x3f3 /home/woods/Documents/Bachelorthesis/ModeLevelTaskModel_RM/build/Demo/Drivers/gpio.o
 .debug_info    0x0000000000003412      0x1b2 /home/woods/Documents/Bachelorthesis/ModeLevelTaskModel_RM/build/Demo/Drivers/uart.o
 .debug_info    0x00000000000035c4      0x389 /home/woods/Documents/Bachelorthesis/ModeLevelTaskModel_RM/build/Demo/Drivers/print_473.o
 .debug_info    0x000000000000394d      0x2cb /home/woods/Documents/Bachelorthesis/ModeLevelTaskModel_RM/build//FreeRTOS/Source/portable/MemMang/heap_4.o
 .debug_info    0x0000000000003c18     0xe9aa /home/woods/Documents/Bachelorthesis/ModeLevelTaskModel_RM/build/Demo/main.o
 .debug_info    0x00000000000125c2       0xae /usr/lib/gcc/arm-none-eabi/4.9.3/libgcc.a(_udivsi3.o)
 .debug_info    0x0000000000012670       0xae /usr/lib/gcc/arm-none-eabi/4.9.3/libgcc.a(_dvmd_tls.o)
 .debug_info    0x000000000001271e       0xaf /usr/lib/gcc/arm-none-eabi/4.9.3/libgcc.a(_arm_addsubdf3.o)
 .debug_info    0x00000000000127cd       0xaf /usr/lib/gcc/arm-none-eabi/4.9.3/libgcc.a(_arm_muldivdf3.o)
 .debug_info    0x000000000001287c       0xaf /usr/lib/gcc/arm-none-eabi/4.9.3/libgcc.a(_arm_fixunsdfsi.o)
 .debug_info    0x000000000001292b      0x131 /usr/lib/arm-none-eabi/lib/libc.a(lib_a-memcpy.o)
 .debug_info    0x0000000000012a5c      0x117 /usr/lib/arm-none-eabi/lib/libc.a(lib_a-memset.o)
 .debug_info    0x0000000000012b73      0x128 /usr/lib/arm-none-eabi/lib/libc.a(lib_a-strncpy.o)

.debug_abbrev   0x0000000000000000     0x1445
 .debug_abbrev  0x0000000000000000      0x148 /home/woods/Documents/Bachelorthesis/ModeLevelTaskModel_RM/build/FreeRTOS/Source/portable/GCC/RaspberryPi/port.o
 .debug_abbrev  0x0000000000000148       0xce /home/woods/Documents/Bachelorthesis/ModeLevelTaskModel_RM/build/FreeRTOS/Source/portable/GCC/RaspberryPi/portisr.o
 .debug_abbrev  0x0000000000000216      0x185 /home/woods/Documents/Bachelorthesis/ModeLevelTaskModel_RM/build/FreeRTOS/Source/croutine.o
 .debug_abbrev  0x000000000000039b       0xba /home/woods/Documents/Bachelorthesis/ModeLevelTaskModel_RM/build/FreeRTOS/Source/list.o
 .debug_abbrev  0x0000000000000455      0x132 /home/woods/Documents/Bachelorthesis/ModeLevelTaskModel_RM/build/FreeRTOS/Source/queue.o
 .debug_abbrev  0x0000000000000587      0x2a9 /home/woods/Documents/Bachelorthesis/ModeLevelTaskModel_RM/build/FreeRTOS/Source/tasks.o
 .debug_abbrev  0x0000000000000830       0xd7 /home/woods/Documents/Bachelorthesis/ModeLevelTaskModel_RM/build/FreeRTOS/Source/binaryHeap.o
 .debug_abbrev  0x0000000000000907      0x10f /home/woods/Documents/Bachelorthesis/ModeLevelTaskModel_RM/build/FreeRTOS/Source/pairingHeap.o
 .debug_abbrev  0x0000000000000a16       0xaf /home/woods/Documents/Bachelorthesis/ModeLevelTaskModel_RM/build/FreeRTOS/Source/dll.o
 .debug_abbrev  0x0000000000000ac5      0x12f /home/woods/Documents/Bachelorthesis/ModeLevelTaskModel_RM/build/Demo/Drivers/irq.o
 .debug_abbrev  0x0000000000000bf4      0x12f /home/woods/Documents/Bachelorthesis/ModeLevelTaskModel_RM/build/Demo/Drivers/gpio.o
 .debug_abbrev  0x0000000000000d23       0xee /home/woods/Documents/Bachelorthesis/ModeLevelTaskModel_RM/build/Demo/Drivers/uart.o
 .debug_abbrev  0x0000000000000e11      0x13b /home/woods/Documents/Bachelorthesis/ModeLevelTaskModel_RM/build/Demo/Drivers/print_473.o
 .debug_abbrev  0x0000000000000f4c      0x199 /home/woods/Documents/Bachelorthesis/ModeLevelTaskModel_RM/build//FreeRTOS/Source/portable/MemMang/heap_4.o
 .debug_abbrev  0x00000000000010e5      0x113 /home/woods/Documents/Bachelorthesis/ModeLevelTaskModel_RM/build/Demo/main.o
 .debug_abbrev  0x00000000000011f8       0x14 /usr/lib/gcc/arm-none-eabi/4.9.3/libgcc.a(_udivsi3.o)
 .debug_abbrev  0x000000000000120c       0x14 /usr/lib/gcc/arm-none-eabi/4.9.3/libgcc.a(_dvmd_tls.o)
 .debug_abbrev  0x0000000000001220       0x14 /usr/lib/gcc/arm-none-eabi/4.9.3/libgcc.a(_arm_addsubdf3.o)
 .debug_abbrev  0x0000000000001234       0x14 /usr/lib/gcc/arm-none-eabi/4.9.3/libgcc.a(_arm_muldivdf3.o)
 .debug_abbrev  0x0000000000001248       0x14 /usr/lib/gcc/arm-none-eabi/4.9.3/libgcc.a(_arm_fixunsdfsi.o)
 .debug_abbrev  0x000000000000125c       0xab /usr/lib/arm-none-eabi/lib/libc.a(lib_a-memcpy.o)
 .debug_abbrev  0x0000000000001307       0x9f /usr/lib/arm-none-eabi/lib/libc.a(lib_a-memset.o)
 .debug_abbrev  0x00000000000013a6       0x9f /usr/lib/arm-none-eabi/lib/libc.a(lib_a-strncpy.o)

.debug_aranges  0x0000000000000000      0x2e0
 .debug_aranges
                0x0000000000000000       0x20 /home/woods/Documents/Bachelorthesis/ModeLevelTaskModel_RM/build/FreeRTOS/Source/portable/GCC/RaspberryPi/port.o
 .debug_aranges
                0x0000000000000020       0x20 /home/woods/Documents/Bachelorthesis/ModeLevelTaskModel_RM/build/FreeRTOS/Source/portable/GCC/RaspberryPi/portisr.o
 .debug_aranges
                0x0000000000000040       0x20 /home/woods/Documents/Bachelorthesis/ModeLevelTaskModel_RM/build/FreeRTOS/Source/croutine.o
 .debug_aranges
                0x0000000000000060       0x20 /home/woods/Documents/Bachelorthesis/ModeLevelTaskModel_RM/build/FreeRTOS/Source/list.o
 .debug_aranges
                0x0000000000000080       0x20 /home/woods/Documents/Bachelorthesis/ModeLevelTaskModel_RM/build/FreeRTOS/Source/queue.o
 .debug_aranges
                0x00000000000000a0       0x20 /home/woods/Documents/Bachelorthesis/ModeLevelTaskModel_RM/build/FreeRTOS/Source/tasks.o
 .debug_aranges
                0x00000000000000c0       0x20 /home/woods/Documents/Bachelorthesis/ModeLevelTaskModel_RM/build/FreeRTOS/Source/binaryHeap.o
 .debug_aranges
                0x00000000000000e0       0x20 /home/woods/Documents/Bachelorthesis/ModeLevelTaskModel_RM/build/FreeRTOS/Source/pairingHeap.o
 .debug_aranges
                0x0000000000000100       0x20 /home/woods/Documents/Bachelorthesis/ModeLevelTaskModel_RM/build/FreeRTOS/Source/dll.o
 .debug_aranges
                0x0000000000000120       0x20 /home/woods/Documents/Bachelorthesis/ModeLevelTaskModel_RM/build/Demo/Drivers/irq.o
 .debug_aranges
                0x0000000000000140       0x20 /home/woods/Documents/Bachelorthesis/ModeLevelTaskModel_RM/build/Demo/Drivers/gpio.o
 .debug_aranges
                0x0000000000000160       0x20 /home/woods/Documents/Bachelorthesis/ModeLevelTaskModel_RM/build/Demo/Drivers/uart.o
 .debug_aranges
                0x0000000000000180       0x20 /home/woods/Documents/Bachelorthesis/ModeLevelTaskModel_RM/build/Demo/Drivers/print_473.o
 .debug_aranges
                0x00000000000001a0       0x20 /home/woods/Documents/Bachelorthesis/ModeLevelTaskModel_RM/build//FreeRTOS/Source/portable/MemMang/heap_4.o
 .debug_aranges
                0x00000000000001c0       0x20 /home/woods/Documents/Bachelorthesis/ModeLevelTaskModel_RM/build/Demo/main.o
 .debug_aranges
                0x00000000000001e0       0x20 /usr/lib/gcc/arm-none-eabi/4.9.3/libgcc.a(_udivsi3.o)
 .debug_aranges
                0x0000000000000200       0x20 /usr/lib/gcc/arm-none-eabi/4.9.3/libgcc.a(_dvmd_tls.o)
 .debug_aranges
                0x0000000000000220       0x20 /usr/lib/gcc/arm-none-eabi/4.9.3/libgcc.a(_arm_addsubdf3.o)
 .debug_aranges
                0x0000000000000240       0x20 /usr/lib/gcc/arm-none-eabi/4.9.3/libgcc.a(_arm_muldivdf3.o)
 .debug_aranges
                0x0000000000000260       0x20 /usr/lib/gcc/arm-none-eabi/4.9.3/libgcc.a(_arm_fixunsdfsi.o)
 .debug_aranges
                0x0000000000000280       0x20 /usr/lib/arm-none-eabi/lib/libc.a(lib_a-memcpy.o)
 .debug_aranges
                0x00000000000002a0       0x20 /usr/lib/arm-none-eabi/lib/libc.a(lib_a-memset.o)
 .debug_aranges
                0x00000000000002c0       0x20 /usr/lib/arm-none-eabi/lib/libc.a(lib_a-strncpy.o)

.debug_line     0x0000000000000000     0x2141
 .debug_line    0x0000000000000000      0x15a /home/woods/Documents/Bachelorthesis/ModeLevelTaskModel_RM/build/FreeRTOS/Source/portable/GCC/RaspberryPi/port.o
 .debug_line    0x000000000000015a       0xd1 /home/woods/Documents/Bachelorthesis/ModeLevelTaskModel_RM/build/FreeRTOS/Source/portable/GCC/RaspberryPi/portisr.o
 .debug_line    0x000000000000022b      0x226 /home/woods/Documents/Bachelorthesis/ModeLevelTaskModel_RM/build/FreeRTOS/Source/croutine.o
 .debug_line    0x0000000000000451      0x18a /home/woods/Documents/Bachelorthesis/ModeLevelTaskModel_RM/build/FreeRTOS/Source/list.o
 .debug_line    0x00000000000005db      0x2cb /home/woods/Documents/Bachelorthesis/ModeLevelTaskModel_RM/build/FreeRTOS/Source/queue.o
 .debug_line    0x00000000000008a6      0x715 /home/woods/Documents/Bachelorthesis/ModeLevelTaskModel_RM/build/FreeRTOS/Source/tasks.o
 .debug_line    0x0000000000000fbb       0xd9 /home/woods/Documents/Bachelorthesis/ModeLevelTaskModel_RM/build/FreeRTOS/Source/binaryHeap.o
 .debug_line    0x0000000000001094      0x120 /home/woods/Documents/Bachelorthesis/ModeLevelTaskModel_RM/build/FreeRTOS/Source/pairingHeap.o
 .debug_line    0x00000000000011b4      0x160 /home/woods/Documents/Bachelorthesis/ModeLevelTaskModel_RM/build/FreeRTOS/Source/dll.o
 .debug_line    0x0000000000001314       0xc7 /home/woods/Documents/Bachelorthesis/ModeLevelTaskModel_RM/build/Demo/Drivers/irq.o
 .debug_line    0x00000000000013db       0xd7 /home/woods/Documents/Bachelorthesis/ModeLevelTaskModel_RM/build/Demo/Drivers/gpio.o
 .debug_line    0x00000000000014b2      0x157 /home/woods/Documents/Bachelorthesis/ModeLevelTaskModel_RM/build/Demo/Drivers/uart.o
 .debug_line    0x0000000000001609      0x1e2 /home/woods/Documents/Bachelorthesis/ModeLevelTaskModel_RM/build/Demo/Drivers/print_473.o
 .debug_line    0x00000000000017eb      0x131 /home/woods/Documents/Bachelorthesis/ModeLevelTaskModel_RM/build//FreeRTOS/Source/portable/MemMang/heap_4.o
 .debug_line    0x000000000000191c       0xcb /home/woods/Documents/Bachelorthesis/ModeLevelTaskModel_RM/build/Demo/main.o
 .debug_line    0x00000000000019e7       0x78 /usr/lib/gcc/arm-none-eabi/4.9.3/libgcc.a(_udivsi3.o)
 .debug_line    0x0000000000001a5f       0x5b /usr/lib/gcc/arm-none-eabi/4.9.3/libgcc.a(_dvmd_tls.o)
 .debug_line    0x0000000000001aba      0x15e /usr/lib/gcc/arm-none-eabi/4.9.3/libgcc.a(_arm_addsubdf3.o)
 .debug_line    0x0000000000001c18      0x17a /usr/lib/gcc/arm-none-eabi/4.9.3/libgcc.a(_arm_muldivdf3.o)
 .debug_line    0x0000000000001d92       0x70 /usr/lib/gcc/arm-none-eabi/4.9.3/libgcc.a(_arm_fixunsdfsi.o)
 .debug_line    0x0000000000001e02      0x119 /usr/lib/arm-none-eabi/lib/libc.a(lib_a-memcpy.o)
 .debug_line    0x0000000000001f1b      0x11a /usr/lib/arm-none-eabi/lib/libc.a(lib_a-memset.o)
 .debug_line    0x0000000000002035      0x10c /usr/lib/arm-none-eabi/lib/libc.a(lib_a-strncpy.o)

.debug_str      0x0000000000000000     0x98fa
 .debug_str     0x0000000000000000      0x1cd /home/woods/Documents/Bachelorthesis/ModeLevelTaskModel_RM/build/FreeRTOS/Source/portable/GCC/RaspberryPi/port.o
                                        0x219 (size before relaxing)
 .debug_str     0x00000000000001cd      0x10c /home/woods/Documents/Bachelorthesis/ModeLevelTaskModel_RM/build/FreeRTOS/Source/portable/GCC/RaspberryPi/portisr.o
                                        0x18e (size before relaxing)
 .debug_str     0x00000000000002d9      0x379 /home/woods/Documents/Bachelorthesis/ModeLevelTaskModel_RM/build/FreeRTOS/Source/croutine.o
                                        0x439 (size before relaxing)
 .debug_str     0x0000000000000652      0x122 /home/woods/Documents/Bachelorthesis/ModeLevelTaskModel_RM/build/FreeRTOS/Source/list.o
                                        0x26a (size before relaxing)
 .debug_str     0x0000000000000774      0x359 /home/woods/Documents/Bachelorthesis/ModeLevelTaskModel_RM/build/FreeRTOS/Source/queue.o
                                        0x506 (size before relaxing)
 .debug_str     0x0000000000000acd      0x98e /home/woods/Documents/Bachelorthesis/ModeLevelTaskModel_RM/build/FreeRTOS/Source/tasks.o
                                        0xc52 (size before relaxing)
 .debug_str     0x000000000000145b       0xb7 /home/woods/Documents/Bachelorthesis/ModeLevelTaskModel_RM/build/FreeRTOS/Source/binaryHeap.o
                                        0x119 (size before relaxing)
 .debug_str     0x0000000000001512      0x101 /home/woods/Documents/Bachelorthesis/ModeLevelTaskModel_RM/build/FreeRTOS/Source/pairingHeap.o
                                        0x232 (size before relaxing)
 .debug_str     0x0000000000001613       0x61 /home/woods/Documents/Bachelorthesis/ModeLevelTaskModel_RM/build/FreeRTOS/Source/dll.o
                                        0x1d9 (size before relaxing)
 .debug_str     0x0000000000001674      0x16d /home/woods/Documents/Bachelorthesis/ModeLevelTaskModel_RM/build/Demo/Drivers/irq.o
                                        0x1fc (size before relaxing)
 .debug_str     0x00000000000017e1      0x247 /home/woods/Documents/Bachelorthesis/ModeLevelTaskModel_RM/build/Demo/Drivers/gpio.o
                                        0x2d4 (size before relaxing)
 .debug_str     0x0000000000001a28       0x8b /home/woods/Documents/Bachelorthesis/ModeLevelTaskModel_RM/build/Demo/Drivers/uart.o
                                        0x168 (size before relaxing)
 .debug_str     0x0000000000001ab3       0xce /home/woods/Documents/Bachelorthesis/ModeLevelTaskModel_RM/build/Demo/Drivers/print_473.o
                                        0x1a0 (size before relaxing)
 .debug_str     0x0000000000001b81      0x1e1 /home/woods/Documents/Bachelorthesis/ModeLevelTaskModel_RM/build//FreeRTOS/Source/portable/MemMang/heap_4.o
                                        0x2da (size before relaxing)
 .debug_str     0x0000000000001d62     0x7a0e /home/woods/Documents/Bachelorthesis/ModeLevelTaskModel_RM/build/Demo/main.o
                                       0x7b75 (size before relaxing)
 .debug_str     0x0000000000009770      0x110 /usr/lib/arm-none-eabi/lib/libc.a(lib_a-memcpy.o)
                                        0x1a9 (size before relaxing)
 .debug_str     0x0000000000009880       0x46 /usr/lib/arm-none-eabi/lib/libc.a(lib_a-memset.o)
                                        0x196 (size before relaxing)
 .debug_str     0x00000000000098c6       0x34 /usr/lib/arm-none-eabi/lib/libc.a(lib_a-strncpy.o)
                                        0x1ac (size before relaxing)

.comment        0x0000000000000000       0x70
 .comment       0x0000000000000000       0x38 /home/woods/Documents/Bachelorthesis/ModeLevelTaskModel_RM/build/FreeRTOS/Source/portable/GCC/RaspberryPi/port.o
                                         0x39 (size before relaxing)
 .comment       0x0000000000000038       0x39 /home/woods/Documents/Bachelorthesis/ModeLevelTaskModel_RM/build/FreeRTOS/Source/portable/GCC/RaspberryPi/portisr.o
 .comment       0x0000000000000038       0x39 /home/woods/Documents/Bachelorthesis/ModeLevelTaskModel_RM/build/FreeRTOS/Source/croutine.o
 .comment       0x0000000000000038       0x39 /home/woods/Documents/Bachelorthesis/ModeLevelTaskModel_RM/build/FreeRTOS/Source/list.o
 .comment       0x0000000000000038       0x39 /home/woods/Documents/Bachelorthesis/ModeLevelTaskModel_RM/build/FreeRTOS/Source/queue.o
 .comment       0x0000000000000038       0x39 /home/woods/Documents/Bachelorthesis/ModeLevelTaskModel_RM/build/FreeRTOS/Source/tasks.o
 .comment       0x0000000000000038       0x39 /home/woods/Documents/Bachelorthesis/ModeLevelTaskModel_RM/build/FreeRTOS/Source/binaryHeap.o
 .comment       0x0000000000000038       0x39 /home/woods/Documents/Bachelorthesis/ModeLevelTaskModel_RM/build/FreeRTOS/Source/pairingHeap.o
 .comment       0x0000000000000038       0x39 /home/woods/Documents/Bachelorthesis/ModeLevelTaskModel_RM/build/FreeRTOS/Source/dll.o
 .comment       0x0000000000000038       0x39 /home/woods/Documents/Bachelorthesis/ModeLevelTaskModel_RM/build/Demo/Drivers/irq.o
 .comment       0x0000000000000038       0x39 /home/woods/Documents/Bachelorthesis/ModeLevelTaskModel_RM/build/Demo/Drivers/gpio.o
 .comment       0x0000000000000038       0x39 /home/woods/Documents/Bachelorthesis/ModeLevelTaskModel_RM/build/Demo/Drivers/uart.o
 .comment       0x0000000000000038       0x39 /home/woods/Documents/Bachelorthesis/ModeLevelTaskModel_RM/build/Demo/Drivers/print_473.o
 .comment       0x0000000000000038       0x39 /home/woods/Documents/Bachelorthesis/ModeLevelTaskModel_RM/build//FreeRTOS/Source/portable/MemMang/heap_4.o
 .comment       0x0000000000000038       0x39 /home/woods/Documents/Bachelorthesis/ModeLevelTaskModel_RM/build/Demo/main.o
 .comment       0x0000000000000038       0x38 /usr/lib/arm-none-eabi/lib/libc.a(lib_a-memcpy.o)
                                         0x39 (size before relaxing)
 .comment       0x0000000000000070       0x39 /usr/lib/arm-none-eabi/lib/libc.a(lib_a-memset.o)
 .comment       0x0000000000000070       0x39 /usr/lib/arm-none-eabi/lib/libc.a(lib_a-strncpy.o)

.ARM.attributes
                0x0000000000000000       0x2c
 .ARM.attributes
                0x0000000000000000       0x2e /home/woods/Documents/Bachelorthesis/ModeLevelTaskModel_RM/build/FreeRTOS/Source/portable/GCC/RaspberryPi/port.o
 .ARM.attributes
                0x000000000000002e       0x2e /home/woods/Documents/Bachelorthesis/ModeLevelTaskModel_RM/build/FreeRTOS/Source/portable/GCC/RaspberryPi/portisr.o
 .ARM.attributes
                0x000000000000005c       0x2e /home/woods/Documents/Bachelorthesis/ModeLevelTaskModel_RM/build/FreeRTOS/Source/croutine.o
 .ARM.attributes
                0x000000000000008a       0x2e /home/woods/Documents/Bachelorthesis/ModeLevelTaskModel_RM/build/FreeRTOS/Source/list.o
 .ARM.attributes
                0x00000000000000b8       0x2e /home/woods/Documents/Bachelorthesis/ModeLevelTaskModel_RM/build/FreeRTOS/Source/queue.o
 .ARM.attributes
                0x00000000000000e6       0x2e /home/woods/Documents/Bachelorthesis/ModeLevelTaskModel_RM/build/FreeRTOS/Source/tasks.o
 .ARM.attributes
                0x0000000000000114       0x2e /home/woods/Documents/Bachelorthesis/ModeLevelTaskModel_RM/build/FreeRTOS/Source/binaryHeap.o
 .ARM.attributes
                0x0000000000000142       0x2e /home/woods/Documents/Bachelorthesis/ModeLevelTaskModel_RM/build/FreeRTOS/Source/pairingHeap.o
 .ARM.attributes
                0x0000000000000170       0x2e /home/woods/Documents/Bachelorthesis/ModeLevelTaskModel_RM/build/FreeRTOS/Source/dll.o
 .ARM.attributes
                0x000000000000019e       0x2e /home/woods/Documents/Bachelorthesis/ModeLevelTaskModel_RM/build/Demo/Drivers/irq.o
 .ARM.attributes
                0x00000000000001cc       0x2e /home/woods/Documents/Bachelorthesis/ModeLevelTaskModel_RM/build/Demo/Drivers/gpio.o
 .ARM.attributes
                0x00000000000001fa       0x2e /home/woods/Documents/Bachelorthesis/ModeLevelTaskModel_RM/build/Demo/Drivers/uart.o
 .ARM.attributes
                0x0000000000000228       0x2e /home/woods/Documents/Bachelorthesis/ModeLevelTaskModel_RM/build/Demo/Drivers/print_473.o
 .ARM.attributes
                0x0000000000000256       0x2e /home/woods/Documents/Bachelorthesis/ModeLevelTaskModel_RM/build//FreeRTOS/Source/portable/MemMang/heap_4.o
 .ARM.attributes
                0x0000000000000284       0x14 /home/woods/Documents/Bachelorthesis/ModeLevelTaskModel_RM/build/Demo/startup.o
 .ARM.attributes
                0x0000000000000298       0x2e /home/woods/Documents/Bachelorthesis/ModeLevelTaskModel_RM/build/Demo/main.o
 .ARM.attributes
                0x00000000000002c6       0x18 /usr/lib/gcc/arm-none-eabi/4.9.3/libgcc.a(_udivsi3.o)
 .ARM.attributes
                0x00000000000002de       0x18 /usr/lib/gcc/arm-none-eabi/4.9.3/libgcc.a(_dvmd_tls.o)
 .ARM.attributes
                0x00000000000002f6       0x18 /usr/lib/gcc/arm-none-eabi/4.9.3/libgcc.a(_arm_addsubdf3.o)
 .ARM.attributes
                0x000000000000030e       0x18 /usr/lib/gcc/arm-none-eabi/4.9.3/libgcc.a(_arm_muldivdf3.o)
 .ARM.attributes
                0x0000000000000326       0x18 /usr/lib/gcc/arm-none-eabi/4.9.3/libgcc.a(_arm_fixunsdfsi.o)
 .ARM.attributes
                0x000000000000033e       0x30 /usr/lib/arm-none-eabi/lib/libc.a(lib_a-memcpy.o)
 .ARM.attributes
                0x000000000000036e       0x30 /usr/lib/arm-none-eabi/lib/libc.a(lib_a-memset.o)
 .ARM.attributes
                0x000000000000039e       0x30 /usr/lib/arm-none-eabi/lib/libc.a(lib_a-strncpy.o)

.debug_frame    0x0000000000000000     0x12e0
 .debug_frame   0x0000000000000000       0xcc /home/woods/Documents/Bachelorthesis/ModeLevelTaskModel_RM/build/FreeRTOS/Source/portable/GCC/RaspberryPi/port.o
 .debug_frame   0x00000000000000cc       0x90 /home/woods/Documents/Bachelorthesis/ModeLevelTaskModel_RM/build/FreeRTOS/Source/portable/GCC/RaspberryPi/portisr.o
 .debug_frame   0x000000000000015c       0xf0 /home/woods/Documents/Bachelorthesis/ModeLevelTaskModel_RM/build/FreeRTOS/Source/croutine.o
 .debug_frame   0x000000000000024c       0xb0 /home/woods/Documents/Bachelorthesis/ModeLevelTaskModel_RM/build/FreeRTOS/Source/list.o
 .debug_frame   0x00000000000002fc      0x214 /home/woods/Documents/Bachelorthesis/ModeLevelTaskModel_RM/build/FreeRTOS/Source/queue.o
 .debug_frame   0x0000000000000510      0x620 /home/woods/Documents/Bachelorthesis/ModeLevelTaskModel_RM/build/FreeRTOS/Source/tasks.o
 .debug_frame   0x0000000000000b30       0x90 /home/woods/Documents/Bachelorthesis/ModeLevelTaskModel_RM/build/FreeRTOS/Source/binaryHeap.o
 .debug_frame   0x0000000000000bc0       0x94 /home/woods/Documents/Bachelorthesis/ModeLevelTaskModel_RM/build/FreeRTOS/Source/pairingHeap.o
 .debug_frame   0x0000000000000c54       0x50 /home/woods/Documents/Bachelorthesis/ModeLevelTaskModel_RM/build/FreeRTOS/Source/dll.o
 .debug_frame   0x0000000000000ca4       0xf0 /home/woods/Documents/Bachelorthesis/ModeLevelTaskModel_RM/build/Demo/Drivers/irq.o
 .debug_frame   0x0000000000000d94       0xf0 /home/woods/Documents/Bachelorthesis/ModeLevelTaskModel_RM/build/Demo/Drivers/gpio.o
 .debug_frame   0x0000000000000e84      0x10c /home/woods/Documents/Bachelorthesis/ModeLevelTaskModel_RM/build/Demo/Drivers/uart.o
 .debug_frame   0x0000000000000f90      0x14c /home/woods/Documents/Bachelorthesis/ModeLevelTaskModel_RM/build/Demo/Drivers/print_473.o
 .debug_frame   0x00000000000010dc       0xd0 /home/woods/Documents/Bachelorthesis/ModeLevelTaskModel_RM/build//FreeRTOS/Source/portable/MemMang/heap_4.o
 .debug_frame   0x00000000000011ac       0x70 /home/woods/Documents/Bachelorthesis/ModeLevelTaskModel_RM/build/Demo/main.o
 .debug_frame   0x000000000000121c       0x20 /usr/lib/gcc/arm-none-eabi/4.9.3/libgcc.a(_udivsi3.o)
 .debug_frame   0x000000000000123c       0x38 /usr/lib/arm-none-eabi/lib/libc.a(lib_a-memcpy.o)
 .debug_frame   0x0000000000001274       0x30 /usr/lib/arm-none-eabi/lib/libc.a(lib_a-memset.o)
 .debug_frame   0x00000000000012a4       0x3c /usr/lib/arm-none-eabi/lib/libc.a(lib_a-strncpy.o)

.debug_loc      0x0000000000000000      0x4cb
 .debug_loc     0x0000000000000000      0x217 /usr/lib/arm-none-eabi/lib/libc.a(lib_a-memcpy.o)
 .debug_loc     0x0000000000000217      0x198 /usr/lib/arm-none-eabi/lib/libc.a(lib_a-memset.o)
 .debug_loc     0x00000000000003af      0x11c /usr/lib/arm-none-eabi/lib/libc.a(lib_a-strncpy.o)

.debug_ranges   0x0000000000000000       0x30
 .debug_ranges  0x0000000000000000       0x10 /usr/lib/arm-none-eabi/lib/libc.a(lib_a-memcpy.o)
 .debug_ranges  0x0000000000000010       0x10 /usr/lib/arm-none-eabi/lib/libc.a(lib_a-memset.o)
 .debug_ranges  0x0000000000000020       0x10 /usr/lib/arm-none-eabi/lib/libc.a(lib_a-strncpy.o)
